
build/program.elf:     file format elf32-littleriscv

Contents of section .text:
 0000 b7020021 03a30200 13034306 b7020022  ...!......C...."
 0010 23a06200 b7020021 93824200 03a30200  #.b....!..B.....
 0020 b7020022 93824200 23a06200 97020000  ..."..B.#.b.....
 0030 9382c202 97440000 9384c4f8 73905230  .....D......s.R0
 0040 73600430 b7120000 93820288 73a04230  s`.0........s.B0
 0050 b7680000 6f008006 938888ff 23a05800  .h..o.......#.X.
 0060 23a26800 97420000 9382c2f5 03a30200  #.h..B..........
 0070 13031300 23a06200 b7020811 23a06200  ....#.b.....#.b.
 0080 b7020021 03a30200 13034306 b7020022  ...!......C...."
 0090 23a06200 b7020021 93824200 03a30200  #.b....!..B.....
 00a0 b7020022 93824200 23a06200 03a34800  ..."..B.#.b...H.
 00b0 83a20800 93888800 73002030 37080011  ........s. 07...
 00c0 b7050c11 37060811 1307f0ff 97000000  ....7...........
 00d0 e780801c ef0f401f 97000000 e780c01b  ......@.........
 00e0 ef0f4044 97000000 e780001b ef0fc066  ..@D...........f
 00f0 97000000 e780401a ef0f4079 97000000  ......@...@y....
 0100 e7808019 ef0f100c 97000000 e780c018  ................
 0110 ef0f901e 97000000 e7800018 ef0f5048  ..............PH
 0120 97000000 e7804017 ef0f906e 97000000  ......@....n....
 0130 e7808016 ef1f001e 97000000 e780c015  ................
 0140 ef1f8043 97000000 e7800015 ef1f0069  ...C...........i
 0150 97000000 e7804014 ef1f500b 97000000  ......@...P.....
 0160 e7808013 ef1fd016 97000000 e780c012  ................
 0170 ef1f1023 97000000 e7800012 ef1f902f  ...#.........../
 0180 97000000 e7804011 ef1f904f 97000000  ......@....O....
 0190 e7808010 ef1fd072 97000000 e780c00f  .......r........
 01a0 ef2f8017 97000000 e780000f ef2f4038  ./.........../@8
 01b0 97000000 e780400e ef2f0059 97000000  ......@../.Y....
 01c0 e780800d ef2fc06f 97000000 e780c00c  ...../.o........
 01d0 ef2f500d 97000000 e780000c ef2f5020  ./P........../P 
 01e0 97000000 e780400b ef2fd033 97000000  ......@../.3....
 01f0 e780800a ef2fd046 97000000 e780c009  ...../.F........
 0200 ef2fd062 97000000 e7800009 ef2f1076  ./.b........./.v
 0210 97000000 e7804008 ef3f4012 97000000  ......@..?@.....
 0220 e7808007 ef3f4018 97000000 e780c006  .....?@.........
 0230 ef3fc021 97000000 e7800006 ef3f4028  .?.!.........?@(
 0240 97000000 e7804005 ef3f0035 97000000  ......@..?.5....
 0250 e7808004 ef3f004d 97000000 e780c003  .....?.M........
 0260 ef3f407c 97000000 e7800003 ef3f8063  .?@|.........?.c
 0270 97000000 e7804002 ef3f9014 97000000  ......@..?......
 0280 e7808001 ef3f5035 97000000 e780c000  .....?P5........
 0290 6ff09fe3 83260800 93f61600 e39c06fe  o....&..........
 02a0 13071700 23a0e500 67800000 13151500  ....#...g.......
 02b0 13051500 2320a600 67800000 9307f0ff  ....# ..g.......
 02c0 23a0f500 67800f00 13050000 2320a600  #...g.......# ..
 02d0 93000000 13010000 338f2000 930e0000  ........3. .....
 02e0 93012000 e31cdffd 97000000 e78040fc  .. ...........@.
 02f0 93001000 13011000 338f2000 930e2000  ........3. ... .
 0300 93013000 e31cdffb 97000000 e78040fa  ..0...........@.
 0310 93003000 13017000 338f2000 930ea000  ..0...p.3. .....
 0320 93014000 e31cdff9 97000000 e78040f8  ..@...........@.
 0330 93000000 3781ffff 338f2000 b78effff  ....7...3. .....
 0340 93015000 e31cdff7 97000000 e78040f6  ..P...........@.
 0350 b7000080 13010000 338f2000 b70e0080  ........3. .....
 0360 93016000 e31cdff5 97000000 e78040f4  ..`...........@.
 0370 b7000080 3781ffff 338f2000 b78eff7f  ....7...3. .....
 0380 93017000 e31cdff3 97000000 e78040f2  ..p...........@.
 0390 93000000 37810000 1301f1ff 338f2000  ....7.......3. .
 03a0 b78e0000 938efeff 93018000 e318dff1  ................
 03b0 97000000 e780c0ef b7000080 9380f0ff  ................
 03c0 13010000 338f2000 b70e0080 938efeff  ....3. .........
 03d0 93019000 e314dfef 97000000 e78040ed  ..............@.
 03e0 b7000080 9380f0ff 37810000 1301f1ff  ........7.......
 03f0 338f2000 b78e0080 938eeeff 9301a000  3. .............
 0400 e31edfeb 97000000 e78080ea b7000080  ................
 0410 37810000 1301f1ff 338f2000 b78e0080  7.......3. .....
 0420 938efeff 9301b000 e31adfe9 97000000  ................
 0430 e78000e8 b7000080 9380f0ff 3781ffff  ............7...
 0440 338f2000 b78eff7f 938efeff 9301c000  3. .............
 0450 e316dfe7 97000000 e78080e5 93000000  ................
 0460 1301f0ff 338f2000 930ef0ff 9301d000  ....3. .........
 0470 e316dfe5 97000000 e78080e3 9300f0ff  ................
 0480 13011000 338f2000 930e0000 9301e000  ....3. .........
 0490 e316dfe3 97000000 e78080e1 9300f0ff  ................
 04a0 1301f0ff 338f2000 930ee0ff 9301f000  ....3. .........
 04b0 e316dfe1 97000000 e78080df 93001000  ................
 04c0 37010080 1301f1ff 338f2000 b70e0080  7.......3. .....
 04d0 93010001 e314dfdf 97000000 e78040dd  ..............@.
 04e0 9300d000 1301b000 b3802000 930e8001  .......... .....
 04f0 93011001 e394d0dd 97000000 e78040db  ..............@.
 0500 9300e000 1301b000 33812000 930e9001  ........3. .....
 0510 93012001 e314d1db 97000000 e78040d9  .. ...........@.
 0520 67800f00 13050000 2320a600 93000000  g.......# ......
 0530 13010000 338f2040 930e0000 93012000  ....3. @...... .
 0540 e31edfd7 97000000 e78080d6 93001000  ................
 0550 13011000 338f2040 930e0000 93013000  ....3. @......0.
 0560 e31edfd5 97000000 e78080d4 93003000  ..............0.
 0570 13017000 338f2040 930ec0ff 93014000  ..p.3. @......@.
 0580 e31edfd3 97000000 e78080d2 93000000  ................
 0590 3781ffff 338f2040 b78e0000 93015000  7...3. @......P.
 05a0 e31edfd1 97000000 e78080d0 b7000080  ................
 05b0 13010000 338f2040 b70e0080 93016000  ....3. @......`.
 05c0 e31edfcf 97000000 e78080ce b7000080  ................
 05d0 3781ffff 338f2040 b78e0080 93017000  7...3. @......p.
 05e0 e31edfcd 97000000 e78080cc 93000000  ................
 05f0 37810000 1301f1ff 338f2040 b78effff  7.......3. @....
 0600 938e1e00 93018000 e31adfcb 97000000  ................
 0610 e78000ca b7000080 9380f0ff 13010000  ................
 0620 338f2040 b70e0080 938efeff 93019000  3. @............
 0630 e316dfc9 97000000 e78080c7 b7000080  ................
 0640 9380f0ff 37810000 1301f1ff 338f2040  ....7.......3. @
 0650 b78eff7f 9301a000 e312dfc7 97000000  ................
 0660 e78000c5 b7000080 37810000 1301f1ff  ........7.......
 0670 338f2040 b78eff7f 938e1e00 9301b000  3. @............
 0680 e31edfc3 97000000 e78080c2 b7000080  ................
 0690 9380f0ff 3781ffff 338f2040 b78e0080  ....7...3. @....
 06a0 938efeff 9301c000 e31adfc1 97000000  ................
 06b0 e78000c0 93000000 1301f0ff 338f2040  ............3. @
 06c0 930e1000 9301d000 e31adfbf 97000000  ................
 06d0 e78000be 9300f0ff 13011000 338f2040  ............3. @
 06e0 930ee0ff 9301e000 e31adfbd 97000000  ................
 06f0 e78000bc 9300f0ff 1301f0ff 338f2040  ............3. @
 0700 930e0000 9301f000 e31adfbb 97000000  ................
 0710 e78000ba 9300d000 1301b000 b3802040  .............. @
 0720 930e2000 93010001 e39ad0b9 97000000  .. .............
 0730 e78000b8 9300e000 1301b000 33812040  ............3. @
 0740 930e3000 93011001 e31ad1b7 97000000  ..0.............
 0750 e78000b6 67800f00 13050000 2320a600  ....g.......# ..
 0760 b70001ff 938000f0 37110f0f 1301f1f0  ........7.......
 0770 33ff2000 b71e000f 938e0ef0 93012000  3. ........... .
 0780 e31edfb3 97000000 e78080b2 b710f00f  ................
 0790 938000ff 37f1f0f0 1301010f 33ff2000  ....7.......3. .
 07a0 b70ef000 938e0e0f 93013000 e318dfb1  ..........0.....
 07b0 97000000 e780c0af b700ff00 9380f00f  ................
 07c0 37110f0f 1301f1f0 33ff2000 b70e0f00  7.......3. .....
 07d0 938efe00 93014000 e312dfaf 97000000  ......@.........
 07e0 e78000ad b7f00ff0 9380f000 37f1f0f0  ............7...
 07f0 1301010f 33ff2000 b7fe00f0 93015000  ....3. .......P.
 0800 e31edfab 97000000 e78080aa b70001ff  ................
 0810 938000f0 37110f0f 1301f1f0 b3f02000  ....7......... .
 0820 b71e000f 938e0ef0 93016000 e398d0a9  ..........`.....
 0830 97000000 e780c0a7 b710f00f 938000ff  ................
 0840 37f1f0f0 1301010f 33f12000 b70ef000  7.......3. .....
 0850 938e0e0f 93017000 e312d1a7 97000000  ......p.........
 0860 e78000a5 b70001ff 938000f0 b3f01000  ................
 0870 b70e01ff 938e0ef0 93018000 e390d0a5  ................
 0880 97000000 e780c0a2 67800f00 13050000  ........g.......
 0890 2320a600 b70001ff 938000f0 37110f0f  # ..........7...
 08a0 1301f1f0 33ef2000 b70e10ff 938efef0  ....3. .........
 08b0 93012000 e314dfa1 97000000 e780409f  .. ...........@.
 08c0 b710f00f 938000ff 37f1f0f0 1301010f  ........7.......
 08d0 33ef2000 b70ef1ff 938e0eff 93013000  3. ...........0.
 08e0 e31edf9d 97000000 e780809c b700ff00  ................
 08f0 9380f00f 37110f0f 1301f1f0 33ef2000  ....7.......3. .
 0900 b71eff0f 938efeff 93014000 e318df9b  ..........@.....
 0910 97000000 e780c099 b7f00ff0 9380f000  ................
 0920 37f1f0f0 1301010f 33ef2000 b7fefff0  7.......3. .....
 0930 938efe0f 93015000 e312df99 97000000  ......P.........
 0940 e7800097 b70001ff 938000f0 37110f0f  ............7...
 0950 1301f1f0 b3e02000 b70e10ff 938efef0  ...... .........
 0960 93016000 e39cd095 97000000 e7804094  ..`...........@.
 0970 b70001ff 938000f0 37110f0f 1301f1f0  ........7.......
 0980 33e12000 b70e10ff 938efef0 93017000  3. ...........p.
 0990 e316d193 97000000 e7808091 b70001ff  ................
 09a0 938000f0 b3e01000 b70e01ff 938e0ef0  ................
 09b0 93018000 e394d091 97000000 e780408f  ..............@.
 09c0 67800f00 13050000 2320a600 b70001ff  g.......# ......
 09d0 938000f0 37110f0f 1301f1f0 33cf2000  ....7.......3. .
 09e0 b7fe0ff0 938efe00 93012000 e318df8d  .......... .....
 09f0 97000000 e780c08b b710f00f 938000ff  ................
 0a00 37f1f0f0 1301010f 33cf2000 b70e01ff  7.......3. .....
 0a10 938e0ef0 93013000 e312df8b 97000000  ......0.........
 0a20 e7800089 b700ff00 9380f00f 37110f0f  ............7...
 0a30 1301f1f0 33cf2000 b71ef00f 938e0eff  ....3. .........
 0a40 93014000 e31cdf87 97000000 e7804086  ..@...........@.
 0a50 b7f00ff0 9380f000 37f1f0f0 1301010f  ........7.......
 0a60 33cf2000 b70eff00 938efe0f 93015000  3. ...........P.
 0a70 e316df85 97000000 e7808083 b70001ff  ................
 0a80 938000f0 37110f0f 1301f1f0 b3c02000  ....7......... .
 0a90 b7fe0ff0 938efe00 93016000 e390d083  ..........`.....
 0aa0 97000000 e780c080 b70001ff 938000f0  ................
 0ab0 37110f0f 1301f1f0 33c12000 b7fe0ff0  7.......3. .....
 0ac0 938efe00 93017000 631ad1ff 97f0ffff  ......p.c.......
 0ad0 e780007e b70001ff 938000f0 b3c01000  ...~............
 0ae0 930e0000 93018000 639ad0fd 97f0ffff  ........c.......
 0af0 e780007c 67800f00 13050000 2320a600  ...|g.......# ..
 0b00 93001000 13010000 339f2000 930e1000  ........3. .....
 0b10 93012000 6314dffb 97f0ffff e7804079  .. .c.........@y
 0b20 93001000 13011000 339f2000 930e2000  ........3. ... .
 0b30 93013000 6314dff9 97f0ffff e7804077  ..0.c.........@w
 0b40 93001000 13017000 339f2000 930e0008  ......p.3. .....
 0b50 93014000 6314dff7 97f0ffff e7804075  ..@.c.........@u
 0b60 93001000 1301e000 339f2000 b74e0000  ........3. ..N..
 0b70 93015000 6314dff5 97f0ffff e7804073  ..P.c.........@s
 0b80 93001000 1301f001 339f2000 b70e0080  ........3. .....
 0b90 93016000 6314dff3 97f0ffff e7804071  ..`.c.........@q
 0ba0 9300f0ff 13010000 339f2000 930ef0ff  ........3. .....
 0bb0 93017000 6314dff1 97f0ffff e780406f  ..p.c.........@o
 0bc0 9300f0ff 13011000 339f2000 930ee0ff  ........3. .....
 0bd0 93018000 6314dfef 97f0ffff e780406d  ....c.........@m
 0be0 9300f0ff 13017000 339f2000 930e00f8  ......p.3. .....
 0bf0 93019000 6314dfed 97f0ffff e780406b  ....c.........@k
 0c00 9300f0ff 1301e000 339f2000 b7ceffff  ........3. .....
 0c10 9301a000 6314dfeb 97f0ffff e7804069  ....c.........@i
 0c20 9300f0ff 1301f001 339f2000 b70e0080  ........3. .....
 0c30 9301b000 6314dfe9 97f0ffff e7804067  ....c.........@g
 0c40 b7202121 93801012 13010000 339f2000  . !!........3. .
 0c50 b72e2121 938e1e12 9301c000 6310dfe7  ..!!........c...
 0c60 97f0ffff e780c064 b7202121 93801012  .......d. !!....
 0c70 13011000 339f2000 b74e4242 938e2e24  ....3. ..NBB...$
 0c80 9301d000 631cdfe3 97f0ffff e7804062  ....c.........@b
 0c90 b7202121 93801012 13017000 339f2000  . !!......p.3. .
 0ca0 b79e9090 938e0e08 9301e000 6318dfe1  ............c...
 0cb0 97f0ffff e780c05f b7202121 93801012  ......._. !!....
 0cc0 1301e000 339f2000 b74e4848 9301f000  ....3. ..NHH....
 0cd0 6316dfdf 97f0ffff e780805d b7202121  c..........]. !!
 0ce0 93801012 1301f001 339f2000 b70e0080  ........3. .....
 0cf0 93010001 6314dfdd 97f0ffff e780405b  ....c.........@[
 0d00 b7202121 93801012 130100fc 339f2000  . !!........3. .
 0d10 b72e2121 938e1e12 93011001 6310dfdb  ..!!........c...
 0d20 97f0ffff e780c058 b7202121 93801012  .......X. !!....
 0d30 130110fc 339f2000 b74e4242 938e2e24  ....3. ..NBB...$
 0d40 93012001 631cdfd7 97f0ffff e7804056  .. .c.........@V
 0d50 b7202121 93801012 130170fc 339f2000  . !!......p.3. .
 0d60 b79e9090 938e0e08 93013001 6318dfd5  ..........0.c...
 0d70 97f0ffff e780c053 b7202121 93801012  .......S. !!....
 0d80 1301e0fc 339f2000 b74e4848 93014001  ....3. ..NHH..@.
 0d90 6316dfd3 97f0ffff e7808051 67800f00  c..........Qg...
 0da0 13050000 2320a600 b7000080 13010000  ....# ..........
 0db0 33df2000 b70e0080 93012000 6310dfd1  3. ....... .c...
 0dc0 97f0ffff e780c04e b7000080 13011000  .......N........
 0dd0 33df2000 b70e0040 93013000 6310dfcf  3. ....@..0.c...
 0de0 97f0ffff e780c04c b7000080 13017000  .......L......p.
 0df0 33df2000 b70e0001 93014000 6310dfcd  3. .......@.c...
 0e00 97f0ffff e780c04a b7000080 1301e000  .......J........
 0e10 33df2000 b70e0200 93015000 6310dfcb  3. .......P.c...
 0e20 97f0ffff e780c048 b7000080 93801000  .......H........
 0e30 1301f001 33df2000 930e1000 93016000  ....3. .......`.
 0e40 631edfc7 97f0ffff e7808046 9300f0ff  c..........F....
 0e50 13010000 33df2000 930ef0ff 93017000  ....3. .......p.
 0e60 631edfc5 97f0ffff e7808044 9300f0ff  c..........D....
 0e70 13011000 33df2000 b70e0080 938efeff  ....3. .........
 0e80 93018000 631cdfc3 97f0ffff e7804042  ....c.........@B
 0e90 9300f0ff 13017000 33df2000 b70e0002  ......p.3. .....
 0ea0 938efeff 93019000 631adfc1 97f0ffff  ........c.......
 0eb0 e7800040 9300f0ff 1301e000 33df2000  ...@........3. .
 0ec0 b70e0400 938efeff 9301a000 6318dfbf  ............c...
 0ed0 97f0ffff e780c03d 9300f0ff 1301f001  .......=........
 0ee0 33df2000 930e1000 9301b000 6318dfbd  3. .........c...
 0ef0 97f0ffff e780c03b b7202121 93801012  .......;. !!....
 0f00 13010000 33df2000 b72e2121 938e1e12  ....3. ...!!....
 0f10 9301c000 6314dfbb 97f0ffff e7804039  ....c.........@9
 0f20 b7202121 93801012 13011000 33df2000  . !!........3. .
 0f30 b79e9010 938e0e09 9301d000 6310dfb9  ............c...
 0f40 97f0ffff e780c036 b7202121 93801012  .......6. !!....
 0f50 13017000 33df2000 b74e4200 938e2e24  ..p.3. ..NB....$
 0f60 9301e000 631cdfb5 97f0ffff e7804034  ....c.........@4
 0f70 b7202121 93801012 1301e000 33df2000  . !!........3. .
 0f80 b78e0000 938e4e48 9301f000 6318dfb3  ......NH....c...
 0f90 97f0ffff e780c031 b7202121 93801012  .......1. !!....
 0fa0 1301f001 33df2000 930e0000 93010001  ....3. .........
 0fb0 6316dfb1 97f0ffff e780802f b7202121  c........../. !!
 0fc0 93801012 130100fc 33df2000 b72e2121  ........3. ...!!
 0fd0 938e1e12 93011001 6312dfaf 97f0ffff  ........c.......
 0fe0 e780002d b7202121 93801012 130110fc  ...-. !!........
 0ff0 33df2000 b79e9010 938e0e09 93012001  3. ........... .
 1000 631edfab 97f0ffff e780802a 67800f00  c..........*g...
 1010 13050000 2320a600 b7000080 13010000  ....# ..........
 1020 33df2040 b70e0080 93012000 6318dfa9  3. @...... .c...
 1030 97f0ffff e780c027 b7000080 13011000  .......'........
 1040 33df2040 b70e00c0 93013000 6318dfa7  3. @......0.c...
 1050 97f0ffff e780c025 b7000080 13017000  .......%......p.
 1060 33df2040 b70e00ff 93014000 6318dfa5  3. @......@.c...
 1070 97f0ffff e780c023 b7000080 1301e000  .......#........
 1080 33df2040 b70efeff 93015000 6318dfa3  3. @......P.c...
 1090 97f0ffff e780c021 b7000080 93801000  .......!........
 10a0 1301f001 33df2040 930ef0ff 93016000  ....3. @......`.
 10b0 6316dfa1 97f0ffff e780801f b7000080  c...............
 10c0 9380f0ff 13010000 33df2040 b70e0080  ........3. @....
 10d0 938efeff 93017000 6312df9f 97f0ffff  ......p.c.......
 10e0 e780001d b7000080 9380f0ff 13011000  ................
 10f0 33df2040 b70e0040 938efeff 93018000  3. @...@........
 1100 631edf9b 97f0ffff e780801a b7000080  c...............
 1110 9380f0ff 13017000 33df2040 b70e0001  ......p.3. @....
 1120 938efeff 93019000 631adf99 97f0ffff  ........c.......
 1130 e7800018 b7000080 9380f0ff 1301e000  ................
 1140 33df2040 b70e0200 938efeff 9301a000  3. @............
 1150 6316df97 97f0ffff e7808015 b7000080  c...............
 1160 9380f0ff 1301f001 33df2040 930e0000  ........3. @....
 1170 9301b000 6314df95 97f0ffff e7804013  ....c.........@.
 1180 b7808181 93801018 13010000 33df2040  ............3. @
 1190 b78e8181 938e1e18 9301c000 6310df93  ............c...
 11a0 97f0ffff e780c010 b7808181 93801018  ................
 11b0 13011000 33df2040 b7cec0c0 938e0e0c  ....3. @........
 11c0 9301d000 631cdf8f 97f0ffff e780400e  ....c.........@.
 11d0 b7808181 93801018 13017000 33df2040  ..........p.3. @
 11e0 b70e03ff 938e3e30 9301e000 6318df8d  ......>0....c...
 11f0 97f0ffff e780c00b b7808181 93801018  ................
 1200 1301e000 33df2040 b70efeff 938e6e60  ....3. @......n`
 1210 9301f000 6314df8b 97f0ffff e7804009  ....c.........@.
 1220 b7808181 93801018 1301f001 33df2040  ............3. @
 1230 930ef0ff 93010001 6312df89 97f0ffff  ........c.......
 1240 e7800007 b7808181 93801018 130100fc  ................
 1250 33df2040 b78e8181 938e1e18 93011001  3. @............
 1260 631edf85 97f0ffff e7808004 b7808181  c...............
 1270 93801018 130110fc 33df2040 b7cec0c0  ........3. @....
 1280 938e0e0c 93012001 631adf83 97f0ffff  ...... .c.......
 1290 e7800002 b7808181 93801018 130170fc  ..............p.
 12a0 33df2040 b70e03ff 938e3e30 93013001  3. @......>0..0.
 12b0 6316df81 97f0ffff e78080ff b7808181  c...............
 12c0 93801018 1301e0fc 33df2040 b70efeff  ........3. @....
 12d0 938e6e60 93014001 6304df01 6fe01ffe  ..n`..@.c...o...
 12e0 97f0ffff e780c0fc b7808181 93801018  ................
 12f0 1301f0ff 33df2040 930ef0ff 93015001  ....3. @......P.
 1300 6304df01 6fe09ffb 97f0ffff e78040fa  c...o.........@.
 1310 67800f00 13050000 2320a600 93000000  g.......# ......
 1320 13010000 33af2000 930e0000 93012000  ....3. ....... .
 1330 6304df01 6fe09ff8 97f0ffff e78040f7  c...o.........@.
 1340 93001000 13011000 33af2000 930e0000  ........3. .....
 1350 93013000 6304df01 6fe05ff6 97f0ffff  ..0.c...o._.....
 1360 e78000f5 93003000 13017000 33af2000  ......0...p.3. .
 1370 930e1000 93014000 6304df01 6fe01ff4  ......@.c...o...
 1380 97f0ffff e780c0f2 93007000 13013000  ..........p...0.
 1390 33af2000 930e0000 93015000 6304df01  3. .......P.c...
 13a0 6fe0dff1 97f0ffff e78080f0 93000000  o...............
 13b0 3781ffff 33af2000 930e0000 93016000  7...3. .......`.
 13c0 6304df01 6fe09fef 97f0ffff e78040ee  c...o.........@.
 13d0 b7000080 13010000 33af2000 930e1000  ........3. .....
 13e0 93017000 6304df01 6fe05fed 97f0ffff  ..p.c...o._.....
 13f0 e78000ec b7000080 3781ffff 33af2000  ........7...3. .
 1400 930e1000 93018000 6304df01 6fe01feb  ........c...o...
 1410 97f0ffff e780c0e9 93000000 37810000  ............7...
 1420 1301f1ff 33af2000 930e1000 93019000  ....3. .........
 1430 6304df01 6fe09fe8 97f0ffff e78040e7  c...o.........@.
 1440 b7000080 9380f0ff 13010000 33af2000  ............3. .
 1450 930e0000 9301a000 6304df01 6fe01fe6  ........c...o...
 1460 97f0ffff e780c0e4 b7000080 9380f0ff  ................
 1470 37810000 1301f1ff 33af2000 930e0000  7.......3. .....
 1480 9301b000 6304df01 6fe05fe3 97f0ffff  ....c...o._.....
 1490 e78000e2 b7000080 37810000 1301f1ff  ........7.......
 14a0 33af2000 930e1000 9301c000 6304df01  3. .........c...
 14b0 6fe0dfe0 97f0ffff e78080df b7000080  o...............
 14c0 9380f0ff 3781ffff 33af2000 930e0000  ....7...3. .....
 14d0 9301d000 6304df01 6fe05fde 97f0ffff  ....c...o._.....
 14e0 e78000dd 93000000 1301f0ff 33af2000  ............3. .
 14f0 930e0000 9301e000 6304df01 6fe01fdc  ........c...o...
 1500 97f0ffff e780c0da 9300f0ff 13011000  ................
 1510 33af2000 930e1000 9301f000 6304df01  3. .........c...
 1520 6fe0dfd9 97f0ffff e78080d8 9300f0ff  o...............
 1530 1301f0ff 33af2000 930e0000 93010001  ....3. .........
 1540 6304df01 6fe09fd7 97f0ffff e78040d6  c...o.........@.
 1550 9300e000 1301d000 b3a02000 930e0000  .......... .....
 1560 93011001 6384d001 6fe05fd5 97f0ffff  ....c...o._.....
 1570 e78000d4 67800f00 13050000 2320a600  ....g.......# ..
 1580 93000000 13010000 33bf2000 930e0000  ........3. .....
 1590 93012000 6304df01 6fe05fd2 97f0ffff  .. .c...o._.....
 15a0 e78000d1 93001000 13011000 33bf2000  ............3. .
 15b0 930e0000 93013000 6304df01 6fe01fd0  ......0.c...o...
 15c0 97f0ffff e780c0ce 93003000 13017000  ..........0...p.
 15d0 33bf2000 930e1000 93014000 6304df01  3. .......@.c...
 15e0 6fe0dfcd 97f0ffff e78080cc 93007000  o.............p.
 15f0 13013000 33bf2000 930e0000 93015000  ..0.3. .......P.
 1600 6304df01 6fe09fcb 97f0ffff e78040ca  c...o.........@.
 1610 93000000 3781ffff 33bf2000 930e1000  ....7...3. .....
 1620 93016000 6304df01 6fe05fc9 97f0ffff  ..`.c...o._.....
 1630 e78000c8 b7000080 13010000 33bf2000  ............3. .
 1640 930e0000 93017000 6304df01 6fe01fc7  ......p.c...o...
 1650 97f0ffff e780c0c5 b7000080 3781ffff  ............7...
 1660 33bf2000 930e1000 93018000 6304df01  3. .........c...
 1670 6fe0dfc4 97f0ffff e78080c3 93000000  o...............
 1680 37810000 1301f1ff 33bf2000 930e1000  7.......3. .....
 1690 93019000 6304df01 6fe05fc2 97f0ffff  ....c...o._.....
 16a0 e78000c1 b7000080 9380f0ff 13010000  ................
 16b0 33bf2000 930e0000 9301a000 6304df01  3. .........c...
 16c0 6fe0dfbf 97f0ffff e78080be b7000080  o...............
 16d0 9380f0ff 37810000 1301f1ff 33bf2000  ....7.......3. .
 16e0 930e0000 9301b000 6304df01 6fe01fbd  ........c...o...
 16f0 97f0ffff e780c0bb b7000080 37810000  ............7...
 1700 1301f1ff 33bf2000 930e0000 9301c000  ....3. .........
 1710 6304df01 6fe09fba 97f0ffff e78040b9  c...o.........@.
 1720 b7000080 9380f0ff 3781ffff 33bf2000  ........7...3. .
 1730 930e1000 9301d000 6304df01 6fe01fb8  ........c...o...
 1740 97f0ffff e780c0b6 93000000 1301f0ff  ................
 1750 33bf2000 930e1000 9301e000 6304df01  3. .........c...
 1760 6fe0dfb5 97f0ffff e78080b4 9300f0ff  o...............
 1770 13011000 33bf2000 930e0000 9301f000  ....3. .........
 1780 6304df01 6fe09fb3 97f0ffff e78040b2  c...o.........@.
 1790 9300f0ff 1301f0ff 33bf2000 930e0000  ........3. .....
 17a0 93010001 6304df01 6fe05fb1 97f0ffff  ....c...o._.....
 17b0 e78000b0 9300e000 1301d000 b3b02000  .............. .
 17c0 930e0000 93011001 6384d001 6fe01faf  ........c...o...
 17d0 97f0ffff e780c0ad 67800f00 13050000  ........g.......
 17e0 2320a600 93000000 138f0000 930e0000  # ..............
 17f0 93012000 6304df01 6fe05fac 97f0ffff  .. .c...o._.....
 1800 e78000ab 93001000 138f1000 930e2000  .............. .
 1810 93013000 6304df01 6fe05faa 97f0ffff  ..0.c...o._.....
 1820 e78000a9 93003000 138f7000 930ea000  ......0...p.....
 1830 93014000 6304df01 6fe05fa8 97f0ffff  ..@.c...o._.....
 1840 e78000a7 93000000 138f0080 930e0080  ................
 1850 93015000 6304df01 6fe05fa6 97f0ffff  ..P.c...o._.....
 1860 e78000a5 b7000080 138f0000 b70e0080  ................
 1870 93016000 6304df01 6fe05fa4 97f0ffff  ..`.c...o._.....
 1880 e78000a3 b7000080 138f0080 b70e0080  ................
 1890 938e0e80 93017000 6304df01 6fe01fa2  ......p.c...o...
 18a0 97f0ffff e780c0a0 93000000 138ff07f  ................
 18b0 930ef07f 93018000 6304df01 6fe01fa0  ........c...o...
 18c0 97f0ffff e780c09e b7000080 9380f0ff  ................
 18d0 138f0000 b70e0080 938efeff 93019000  ................
 18e0 6304df01 6fe09f9d 97f0ffff e780409c  c...o.........@.
 18f0 b7000080 9380f0ff 138ff07f b70e0080  ................
 1900 938eee7f 9301a000 6304df01 6fe01f9b  ........c...o...
 1910 97f0ffff e780c099 b7000080 138ff07f  ................
 1920 b70e0080 938efe7f 9301b000 6304df01  ............c...
 1930 6fe0df98 97f0ffff e7808097 b7000080  o...............
 1940 9380f0ff 138f0080 b7feff7f 938efe7f  ................
 1950 9301c000 6304df01 6fe05f96 97f0ffff  ....c...o._.....
 1960 e7800095 93000000 138ff0ff 930ef0ff  ................
 1970 9301d000 6304df01 6fe05f94 97f0ffff  ....c...o._.....
 1980 e7800093 9300f0ff 138f1000 930e0000  ................
 1990 9301e000 6304df01 6fe05f92 97f0ffff  ....c...o._.....
 19a0 e7800091 9300f0ff 138ff0ff 930ee0ff  ................
 19b0 9301f000 6304df01 6fe05f90 97f0ffff  ....c...o._.....
 19c0 e780008f b7000080 9380f0ff 138f1000  ................
 19d0 b70e0080 93010001 6304df01 6fe01f8e  ........c...o...
 19e0 97f0ffff e780c08c 9300d000 9380b000  ................
 19f0 930e8001 93011001 6384d001 6fe01f8c  ........c...o...
 1a00 97f0ffff e780c08a 67800f00 13050000  ........g.......
 1a10 2320a600 b70001ff 938000f0 13fff0f0  # ..............
 1a20 b70e01ff 938e0ef0 93012000 6304df01  .......... .c...
 1a30 6fe0df88 97f0ffff e7808087 b710f00f  o...............
 1a40 938000ff 13ff000f 930e000f 93013000  ..............0.
 1a50 6304df01 6fe09f86 97f0ffff e7804085  c...o.........@.
 1a60 b700ff00 9380f00f 13fff070 930ef000  ...........p....
 1a70 93014000 6304df01 6fe05f84 97f0ffff  ..@.c...o._.....
 1a80 e7800083 b7f00ff0 9380f000 13ff000f  ................
 1a90 930e0000 93015000 6304df01 6fe01f82  ......P.c...o...
 1aa0 97f0ffff e780c080 b70001ff 938000f0  ................
 1ab0 93f0000f 930e0000 93016000 6384d001  ..........`.c...
 1ac0 6fe0cfff 97e0ffff e780807e 67800f00  o..........~g...
 1ad0 13050000 2320a600 b70001ff 938000f0  ....# ..........
 1ae0 13eff0f0 930ef0f0 93012000 6304df01  .......... .c...
 1af0 6fe0cffc 97e0ffff e780807b b710f00f  o..........{....
 1b00 938000ff 13ef000f b71ef00f 938e0eff  ................
 1b10 93013000 6304df01 6fe04ffa 97e0ffff  ..0.c...o.O.....
 1b20 e7800079 b700ff00 9380f00f 13eff070  ...y...........p
 1b30 b70eff00 938efe7f 93014000 6304df01  ..........@.c...
 1b40 6fe0cff7 97e0ffff e7808076 b7f00ff0  o..........v....
 1b50 9380f000 13ef000f b7fe0ff0 938efe0f  ................
 1b60 93015000 6304df01 6fe04ff5 97e0ffff  ..P.c...o.O.....
 1b70 e7800074 b70001ff 938000f0 93e0000f  ...t............
 1b80 b70e01ff 938e0eff 93016000 6384d001  ..........`.c...
 1b90 6fe0cff2 97e0ffff e7808071 67800f00  o..........qg...
 1ba0 13050000 2320a600 b710ff00 938000f0  ....# ..........
 1bb0 13cff0f0 b7fe00ff 938efe00 93012000  .............. .
 1bc0 6304df01 6fe08fef 97e0ffff e780406e  c...o.........@n
 1bd0 b710f00f 938000ff 13cf000f b71ef00f  ................
 1be0 938e0ef0 93013000 6304df01 6fe00fed  ......0.c...o...
 1bf0 97e0ffff e780c06b b710ff00 9380f08f  .......k........
 1c00 13cff070 b71eff00 938e0eff 93014000  ...p..........@.
 1c10 6304df01 6fe08fea 97e0ffff e7804069  c...o.........@i
 1c20 b7f00ff0 9380f000 13cf000f b7fe0ff0  ................
 1c30 938efe0f 93015000 6304df01 6fe00fe8  ......P.c...o...
 1c40 97e0ffff e780c066 b7f000ff 93800070  .......f.......p
 1c50 93c0f070 b7fe00ff 938efe00 93016000  ...p..........`.
 1c60 6384d001 6fe08fe5 97e0ffff e7804064  c...o.........@d
 1c70 67800f00 13050000 2320a600 93001000  g.......# ......
 1c80 139f0000 930e1000 93012000 6304df01  .......... .c...
 1c90 6fe0cfe2 97e0ffff e7808061 93001000  o..........a....
 1ca0 139f1000 930e2000 93013000 6304df01  ...... ...0.c...
 1cb0 6fe0cfe0 97e0ffff e780805f 93001000  o.........._....
 1cc0 139f7000 930e0008 93014000 6304df01  ..p.......@.c...
 1cd0 6fe0cfde 97e0ffff e780805d 93001000  o..........]....
 1ce0 139fe000 b74e0000 93015000 6304df01  .....N....P.c...
 1cf0 6fe0cfdc 97e0ffff e780805b 93001000  o..........[....
 1d00 139ff001 b70e0080 93016000 6304df01  ..........`.c...
 1d10 6fe0cfda 97e0ffff e7808059 9300f0ff  o..........Y....
 1d20 139f0000 930ef0ff 93017000 6304df01  ..........p.c...
 1d30 6fe0cfd8 97e0ffff e7808057 9300f0ff  o..........W....
 1d40 139f1000 930ee0ff 93018000 6304df01  ............c...
 1d50 6fe0cfd6 97e0ffff e7808055 9300f0ff  o..........U....
 1d60 139f7000 930e00f8 93019000 6304df01  ..p.........c...
 1d70 6fe0cfd4 97e0ffff e7808053 9300f0ff  o..........S....
 1d80 139fe000 b7ceffff 9301a000 6304df01  ............c...
 1d90 6fe0cfd2 97e0ffff e7808051 9300f0ff  o..........Q....
 1da0 139ff001 b70e0080 9301b000 6304df01  ............c...
 1db0 6fe0cfd0 97e0ffff e780804f b7202121  o..........O. !!
 1dc0 93801012 139f0000 b72e2121 938e1e12  ..........!!....
 1dd0 9301c000 6304df01 6fe04fce 97e0ffff  ....c...o.O.....
 1de0 e780004d b7202121 93801012 139f1000  ...M. !!........
 1df0 b74e4242 938e2e24 9301d000 6304df01  .NBB...$....c...
 1e00 6fe0cfcb 97e0ffff e780804a b7202121  o..........J. !!
 1e10 93801012 139f7000 b79e9090 938e0e08  ......p.........
 1e20 9301e000 6304df01 6fe04fc9 97e0ffff  ....c...o.O.....
 1e30 e7800048 b7202121 93801012 139fe000  ...H. !!........
 1e40 b74e4848 9301f000 6304df01 6fe00fc7  .NHH....c...o...
 1e50 97e0ffff e780c045 b7202121 93801012  .......E. !!....
 1e60 139ff001 b70e0080 93010001 6304df01  ............c...
 1e70 6fe0cfc4 97e0ffff e7808043 67800f00  o..........Cg...
 1e80 13050000 2320a600 b7000080 13df0000  ....# ..........
 1e90 b70e0080 93012000 6304df01 6fe00fc2  ...... .c...o...
 1ea0 97e0ffff e780c040 b7000080 13df1000  .......@........
 1eb0 b70e0040 93013000 6304df01 6fe00fc0  ...@..0.c...o...
 1ec0 97e0ffff e780c03e b7000080 13df7000  .......>......p.
 1ed0 b70e0001 93014000 6304df01 6fe00fbe  ......@.c...o...
 1ee0 97e0ffff e780c03c b7000080 13dfe000  .......<........
 1ef0 b70e0200 93015000 6304df01 6fe00fbc  ......P.c...o...
 1f00 97e0ffff e780c03a b7000080 93801000  .......:........
 1f10 13dff001 930e1000 93016000 6304df01  ..........`.c...
 1f20 6fe0cfb9 97e0ffff e7808038 9300f0ff  o..........8....
 1f30 13df0000 930ef0ff 93017000 6304df01  ..........p.c...
 1f40 6fe0cfb7 97e0ffff e7808036 9300f0ff  o..........6....
 1f50 13df1000 b70e0080 938efeff 93018000  ................
 1f60 6304df01 6fe08fb5 97e0ffff e7804034  c...o.........@4
 1f70 9300f0ff 13df7000 b70e0002 938efeff  ......p.........
 1f80 93019000 6304df01 6fe04fb3 97e0ffff  ....c...o.O.....
 1f90 e7800032 9300f0ff 13dfe000 b70e0400  ...2............
 1fa0 938efeff 9301a000 6304df01 6fe00fb1  ........c...o...
 1fb0 97e0ffff e780c02f 9300f0ff 13dff001  ......./........
 1fc0 930e1000 9301b000 6304df01 6fe00faf  ........c...o...
 1fd0 97e0ffff e780c02d b7202121 93801012  .......-. !!....
 1fe0 13df0000 b72e2121 938e1e12 9301c000  ......!!........
 1ff0 6304df01 6fe08fac 97e0ffff e780402b  c...o.........@+
 2000 b7202121 93801012 13df1000 b79e9010  . !!............
 2010 938e0e09 9301d000 6304df01 6fe00faa  ........c...o...
 2020 97e0ffff e780c028 b7202121 93801012  .......(. !!....
 2030 13df7000 b74e4200 938e2e24 9301e000  ..p..NB....$....
 2040 6304df01 6fe08fa7 97e0ffff e7804026  c...o.........@&
 2050 b7202121 93801012 13dfe000 b78e0000  . !!............
 2060 938e4e48 9301f000 6304df01 6fe00fa5  ..NH....c...o...
 2070 97e0ffff e780c023 b7202121 93801012  .......#. !!....
 2080 13dff001 930e0000 93010001 6304df01  ............c...
 2090 6fe0cfa2 97e0ffff e7808021 b7000080  o..........!....
 20a0 93d07000 b70e0001 93011001 6384d001  ..p.........c...
 20b0 6fe0cfa0 97e0ffff e780801f 67800f00  o...........g...
 20c0 13050000 2320a600 93000000 13df0040  ....# .........@
 20d0 930e0000 93012000 6304df01 6fe00f9e  ...... .c...o...
 20e0 97e0ffff e780c01c b7000080 13df1040  ...............@
 20f0 b70e00c0 93013000 6304df01 6fe00f9c  ......0.c...o...
 2100 97e0ffff e780c01a b7000080 13df7040  ..............p@
 2110 b70e00ff 93014000 6304df01 6fe00f9a  ......@.c...o...
 2120 97e0ffff e780c018 b7000080 13dfe040  ...............@
 2130 b70efeff 93015000 6304df01 6fe00f98  ......P.c...o...
 2140 97e0ffff e780c016 b7000080 93801000  ................
 2150 13dff041 930ef0ff 93016000 6304df01  ...A......`.c...
 2160 6fe0cf95 97e0ffff e7808014 b7000080  o...............
 2170 9380f0ff 13df0040 b70e0080 938efeff  .......@........
 2180 93017000 6304df01 6fe04f93 97e0ffff  ..p.c...o.O.....
 2190 e7800012 b7000080 9380f0ff 13df1040  ...............@
 21a0 b70e0040 938efeff 93018000 6304df01  ...@........c...
 21b0 6fe0cf90 97e0ffff e780800f b7000080  o...............
 21c0 9380f0ff 13df7040 b70e0001 938efeff  ......p@........
 21d0 93019000 6304df01 6fe04f8e 97e0ffff  ....c...o.O.....
 21e0 e780000d b7000080 9380f0ff 13dfe040  ...............@
 21f0 b70e0200 938efeff 9301a000 6304df01  ............c...
 2200 6fe0cf8b 97e0ffff e780800a b7000080  o...............
 2210 9380f0ff 13dff041 930e0000 9301b000  .......A........
 2220 6304df01 6fe08f89 97e0ffff e7804008  c...o.........@.
 2230 b7808181 93801018 13df0040 b78e8181  ...........@....
 2240 938e1e18 9301c000 6304df01 6fe00f87  ........c...o...
 2250 97e0ffff e780c005 b7808181 93801018  ................
 2260 13df1040 b7cec0c0 938e0e0c 9301d000  ...@............
 2270 6304df01 6fe08f84 97e0ffff e7804003  c...o.........@.
 2280 b7808181 93801018 13df7040 b70e03ff  ..........p@....
 2290 938e3e30 9301e000 6304df01 6fe00f82  ..>0....c...o...
 22a0 97e0ffff e780c000 b7808181 93801018  ................
 22b0 13dfe040 b70efeff 938e6e60 9301f000  ...@......n`....
 22c0 6304df01 6fd09fff 97e0ffff e78040fe  c...o.........@.
 22d0 b7808181 93801018 13dff041 930ef0ff  ...........A....
 22e0 93010001 6304df01 6fd05ffd 97e0ffff  ....c...o._.....
 22f0 e78000fc b7000080 93d07040 b70e00ff  ..........p@....
 2300 93011001 6384d001 6fd05ffb 97e0ffff  ....c...o._.....
 2310 e78000fa 67800f00 13050000 2320a600  ....g.......# ..
 2320 93000000 13bf0000 930e0000 93012000  .............. .
 2330 6304df01 6fd09ff8 97e0ffff e78040f7  c...o.........@.
 2340 93001000 13bf1000 930e0000 93013000  ..............0.
 2350 6304df01 6fd09ff6 97e0ffff e78040f5  c...o.........@.
 2360 93003000 13bf7000 930e1000 93014000  ..0...p.......@.
 2370 6304df01 6fd09ff4 97e0ffff e78040f3  c...o.........@.
 2380 93007000 13bf3000 930e0000 93015000  ..p...0.......P.
 2390 6304df01 6fd09ff2 97e0ffff e78040f1  c...o.........@.
 23a0 93000000 13bf0080 930e1000 93016000  ..............`.
 23b0 6304df01 6fd09ff0 97e0ffff e78040ef  c...o.........@.
 23c0 b7000080 13bf0000 930e0000 93017000  ..............p.
 23d0 6304df01 6fd09fee 97e0ffff e78040ed  c...o.........@.
 23e0 b7000080 13bf0080 930e1000 93018000  ................
 23f0 6304df01 6fd09fec 97e0ffff e78040eb  c...o.........@.
 2400 93000000 13bff07f 930e1000 93019000  ................
 2410 6304df01 6fd09fea 97e0ffff e78040e9  c...o.........@.
 2420 b7000080 9380f0ff 13bf0000 930e0000  ................
 2430 9301a000 6304df01 6fd05fe8 97e0ffff  ....c...o._.....
 2440 e78000e7 b7000080 9380f0ff 13bff07f  ................
 2450 930e0000 9301b000 6304df01 6fd01fe6  ........c...o...
 2460 97e0ffff e780c0e4 b7000080 13bff07f  ................
 2470 930e0000 9301c000 6304df01 6fd01fe4  ........c...o...
 2480 97e0ffff e780c0e2 b7000080 9380f0ff  ................
 2490 13bf0080 930e1000 9301d000 6304df01  ............c...
 24a0 6fd0dfe1 97e0ffff e78080e0 93000000  o...............
 24b0 13bff0ff 930e1000 9301e000 6304df01  ............c...
 24c0 6fd0dfdf 97e0ffff e78080de 9300f0ff  o...............
 24d0 13bf1000 930e0000 9301f000 6304df01  ............c...
 24e0 6fd0dfdd 97e0ffff e78080dc 9300f0ff  o...............
 24f0 13bff0ff 930e0000 93010001 6304df01  ............c...
 2500 6fd0dfdb 97e0ffff e78080da 9300b000  o...............
 2510 93b0d000 930e1000 93011001 6384d001  ............c...
 2520 6fd0dfd9 97e0ffff e78080d8 67800f00  o...........g...
 2530 13050000 2320a600 93000000 13af0000  ....# ..........
 2540 930e0000 93012000 6304df01 6fd01fd7  ...... .c...o...
 2550 97e0ffff e780c0d5 93001000 13af1000  ................
 2560 930e0000 93013000 6304df01 6fd01fd5  ......0.c...o...
 2570 97e0ffff e780c0d3 93003000 13af7000  ..........0...p.
 2580 930e1000 93014000 6304df01 6fd01fd3  ......@.c...o...
 2590 97e0ffff e780c0d1 93007000 13af3000  ..........p...0.
 25a0 930e0000 93015000 6304df01 6fd01fd1  ......P.c...o...
 25b0 97e0ffff e780c0cf 93000000 13af0080  ................
 25c0 930e0000 93016000 6304df01 6fd01fcf  ......`.c...o...
 25d0 97e0ffff e780c0cd b7000080 13af0000  ................
 25e0 930e1000 93017000 6304df01 6fd01fcd  ......p.c...o...
 25f0 97e0ffff e780c0cb b7000080 13af0080  ................
 2600 930e1000 93018000 6304df01 6fd01fcb  ........c...o...
 2610 97e0ffff e780c0c9 93000000 13aff07f  ................
 2620 930e1000 93019000 6304df01 6fd01fc9  ........c...o...
 2630 97e0ffff e780c0c7 b7000080 9380f0ff  ................
 2640 13af0000 930e0000 9301a000 6304df01  ............c...
 2650 6fd0dfc6 97e0ffff e78080c5 b7000080  o...............
 2660 9380f0ff 13aff07f 930e0000 9301b000  ................
 2670 6304df01 6fd09fc4 97e0ffff e78040c3  c...o.........@.
 2680 b7000080 13aff07f 930e1000 9301c000  ................
 2690 6304df01 6fd09fc2 97e0ffff e78040c1  c...o.........@.
 26a0 b7000080 9380f0ff 13af0080 930e0000  ................
 26b0 9301d000 6304df01 6fd05fc0 97e0ffff  ....c...o._.....
 26c0 e78000bf 93000000 13aff0ff 930e0000  ................
 26d0 9301e000 6304df01 6fd05fbe 97e0ffff  ....c...o._.....
 26e0 e78000bd 9300f0ff 13af1000 930e1000  ................
 26f0 9301f000 6304df01 6fd05fbc 97e0ffff  ....c...o._.....
 2700 e78000bb 9300f0ff 13aff0ff 930e0000  ................
 2710 93010001 6304df01 6fd05fba 97e0ffff  ....c...o._.....
 2720 e78000b9 9300b000 93a0d000 930e1000  ................
 2730 93011001 6384d001 6fd05fb8 97e0ffff  ....c...o._.....
 2740 e78000b7 67800f00 13050000 2320a600  ....g.......# ..
 2750 97200000 93804087 03af0000 b70eff00  . ....@.........
 2760 938efe0f 93012000 6304df01 6fd01fb5  ...... .c...o...
 2770 97e0ffff e780c0b3 97200000 9380c084  ......... ......
 2780 03af4000 b70e01ff 938e0ef0 93013000  ..@...........0.
 2790 6304df01 6fd09fb2 97e0ffff e78040b1  c...o.........@.
 27a0 97200000 93804082 03af8000 b71ef00f  . ....@.........
 27b0 938e0eff 93014000 6304df01 6fd01fb0  ......@.c...o...
 27c0 97e0ffff e780c0ae 97100000 9380c07f  ................
 27d0 03afc000 b7fe0ff0 938efe00 93015000  ..............P.
 27e0 6304df01 6fd09fad 97e0ffff e78040ac  c...o.........@.
 27f0 97100000 9380007e 03af40ff b70eff00  .......~..@.....
 2800 938efe0f 93016000 6304df01 6fd01fab  ......`.c...o...
 2810 97e0ffff e780c0a9 97100000 9380807b  ...............{
 2820 03af80ff b70e01ff 938e0ef0 93017000  ..............p.
 2830 6304df01 6fd09fa8 97e0ffff e78040a7  c...o.........@.
 2840 97100000 93800079 03afc0ff b71ef00f  .......y........
 2850 938e0eff 93018000 6304df01 6fd01fa6  ........c...o...
 2860 97e0ffff e780c0a4 97100000 93808076  ...............v
 2870 03af0000 b7fe0ff0 938efe00 93019000  ................
 2880 6304df01 6fd09fa3 97e0ffff e78040a2  c...o.........@.
 2890 97100000 93804073 938000fe 83a20002  ......@s........
 28a0 b70eff00 938efe0f 9301a000 6384d201  ............c...
 28b0 6fd0dfa0 97e0ffff e780809f 67800f00  o...........g...
 28c0 13050000 2320a600 97100000 9380c070  ....# .........p
 28d0 3701aa00 1301a10a 23a02000 03af0000  7.......#. .....
 28e0 b70eaa00 938eae0a 93012000 6304df01  .......... .c...
 28f0 6fd0df9c 97e0ffff e780809b 97100000  o...............
 2900 9380806d 37b100aa 130101a0 23a22000  ...m7.......#. .
 2910 03af4000 b7be00aa 938e0ea0 93013000  ..@...........0.
 2920 6304df01 6fd09f99 97e0ffff e7804098  c...o.........@.
 2930 97100000 9380406a 3711a00a 130101aa  ......@j7.......
 2940 23a42000 03af8000 b71ea00a 938e0eaa  #. .............
 2950 93014000 6304df01 6fd05f96 97e0ffff  ..@.c...o._.....
 2960 e7800095 97100000 93800067 37a10aa0  ...........g7...
 2970 1301a100 23a62000 03afc000 b7ae0aa0  ....#. .........
 2980 938eae00 93015000 6304df01 6fd01f93  ......P.c...o...
 2990 97e0ffff e780c091 97100000 93808065  ...............e
 29a0 3701aa00 1301a10a 23aa20fe 03af40ff  7.......#. ...@.
 29b0 b70eaa00 938eae0a 93016000 6304df01  ..........`.c...
 29c0 6fd0df8f 97e0ffff e780808e 97100000  o...............
 29d0 93804062 37b100aa 130101a0 23ac20fe  ..@b7.......#. .
 29e0 03af80ff b7be00aa 938e0ea0 93017000  ..............p.
 29f0 6304df01 6fd09f8c 97e0ffff e780408b  c...o.........@.
 2a00 97100000 9380005f 3711a00a 130101aa  ......._7.......
 2a10 23ae20fe 03afc0ff b71ea00a 938e0eaa  #. .............
 2a20 93018000 6304df01 6fd05f89 97e0ffff  ....c...o._.....
 2a30 e7800088 97100000 9380c05b 37a10aa0  ...........[7...
 2a40 1301a100 23a02000 03af0000 b7ae0aa0  ....#. .........
 2a50 938eae00 93019000 6304df01 6fd01f86  ........c...o...
 2a60 97e0ffff e780c084 97100000 9380c058  ...............X
 2a70 37513412 13018167 138200fe 23202202  7Q4....g....# ".
 2a80 83a20000 b75e3412 938e8e67 9301a000  .....^4....g....
 2a90 6384d201 6fd09f82 97e0ffff e7804081  c...o.........@.
 2aa0 67800f00 13050000 2320a600 93012000  g.......# .... .
 2ab0 93000000 13010000 63882000 63043000  ........c. .c.0.
 2ac0 6fd0cfff 63183000 e38e20fe 63043000  o...c.0... .c.0.
 2ad0 6fd0cffe 97d0ffff e780807d 93013000  o..........}..0.
 2ae0 93001000 13011000 63882000 63043000  ........c. .c.0.
 2af0 6fd0cffc 63183000 e38e20fe 63043000  o...c.0... .c.0.
 2b00 6fd0cffb 97d0ffff e780807a 93014000  o..........z..@.
 2b10 9300f0ff 1301f0ff 63882000 63043000  ........c. .c.0.
 2b20 6fd0cff9 63183000 e38e20fe 63043000  o...c.0... .c.0.
 2b30 6fd0cff8 97d0ffff e7808077 93015000  o..........w..P.
 2b40 93000000 13011000 63842000 63163000  ........c. .c.0.
 2b50 63043000 6fd08ff6 e38c20fe 97d0ffff  c.0.o..... .....
 2b60 e7800075 93016000 93001000 13010000  ...u..`.........
 2b70 63842000 63163000 63043000 6fd00ff4  c. .c.0.c.0.o...
 2b80 e38c20fe 97d0ffff e7808072 93017000  .. ........r..p.
 2b90 9300f0ff 13011000 63842000 63163000  ........c. .c.0.
 2ba0 63043000 6fd08ff1 e38c20fe 97d0ffff  c.0.o..... .....
 2bb0 e7800070 93018000 93001000 1301f0ff  ...p............
 2bc0 63842000 63163000 63043000 6fd00fef  c. .c.0.c.0.o...
 2bd0 e38c20fe 97d0ffff e780806d 67800f00  .. ........mg...
 2be0 13050000 2320a600 93012000 93000000  ....# .... .....
 2bf0 13011000 63982000 63043000 6fd00fec  ....c. .c.0.o...
 2c00 63183000 e39e20fe 63043000 6fd00feb  c.0... .c.0.o...
 2c10 97d0ffff e780c069 93013000 93001000  .......i..0.....
 2c20 13010000 63982000 63043000 6fd00fe9  ....c. .c.0.o...
 2c30 63183000 e39e20fe 63043000 6fd00fe8  c.0... .c.0.o...
 2c40 97d0ffff e780c066 93014000 9300f0ff  .......f..@.....
 2c50 13011000 63982000 63043000 6fd00fe6  ....c. .c.0.o...
 2c60 63183000 e39e20fe 63043000 6fd00fe5  c.0... .c.0.o...
 2c70 97d0ffff e780c063 93015000 93001000  .......c..P.....
 2c80 1301f0ff 63982000 63043000 6fd00fe3  ....c. .c.0.o...
 2c90 63183000 e39e20fe 63043000 6fd00fe2  c.0... .c.0.o...
 2ca0 97d0ffff e780c060 93016000 93000000  .......`..`.....
 2cb0 13010000 63942000 63163000 63043000  ....c. .c.0.c.0.
 2cc0 6fd0cfdf e39c20fe 97d0ffff e780405e  o..... .......@^
 2cd0 93017000 93001000 13011000 63942000  ..p.........c. .
 2ce0 63163000 63043000 6fd04fdd e39c20fe  c.0.c.0.o.O... .
 2cf0 97d0ffff e780c05b 93018000 9300f0ff  .......[........
 2d00 1301f0ff 63942000 63163000 63043000  ....c. .c.0.c.0.
 2d10 6fd0cfda e39c20fe 97d0ffff e7804059  o..... .......@Y
 2d20 67800f00 13050000 2320a600 93012000  g.......# .... .
 2d30 93000000 13011000 63c82000 63043000  ........c. .c.0.
 2d40 6fd0cfd7 63183000 e3ce20fe 63043000  o...c.0... .c.0.
 2d50 6fd0cfd6 97d0ffff e7808055 93013000  o..........U..0.
 2d60 9300f0ff 13011000 63c82000 63043000  ........c. .c.0.
 2d70 6fd0cfd4 63183000 e3ce20fe 63043000  o...c.0... .c.0.
 2d80 6fd0cfd3 97d0ffff e7808052 93014000  o..........R..@.
 2d90 9300e0ff 1301f0ff 63c82000 63043000  ........c. .c.0.
 2da0 6fd0cfd1 63183000 e3ce20fe 63043000  o...c.0... .c.0.
 2db0 6fd0cfd0 97d0ffff e780804f 93015000  o..........O..P.
 2dc0 93001000 13010000 63c42000 63163000  ........c. .c.0.
 2dd0 63043000 6fd08fce e3cc20fe 97d0ffff  c.0.o..... .....
 2de0 e780004d 93016000 93001000 1301f0ff  ...M..`.........
 2df0 63c42000 63163000 63043000 6fd00fcc  c. .c.0.c.0.o...
 2e00 e3cc20fe 97d0ffff e780804a 93017000  .. ........J..p.
 2e10 9300f0ff 1301e0ff 63c42000 63163000  ........c. .c.0.
 2e20 63043000 6fd08fc9 e3cc20fe 97d0ffff  c.0.o..... .....
 2e30 e7800048 93018000 93001000 1301e0ff  ...H............
 2e40 63c42000 63163000 63043000 6fd00fc7  c. .c.0.c.0.o...
 2e50 e3cc20fe 97d0ffff e7808045 67800f00  .. ........Eg...
 2e60 13050000 2320a600 93012000 93000000  ....# .... .....
 2e70 13010000 63d82000 63043000 6fd00fc4  ....c. .c.0.o...
 2e80 63183000 e3de20fe 63043000 6fd00fc3  c.0... .c.0.o...
 2e90 97d0ffff e780c041 93013000 93001000  .......A..0.....
 2ea0 13011000 63d82000 63043000 6fd00fc1  ....c. .c.0.o...
 2eb0 63183000 e3de20fe 63043000 6fd00fc0  c.0... .c.0.o...
 2ec0 97d0ffff e780c03e 93014000 9300f0ff  .......>..@.....
 2ed0 1301f0ff 63d82000 63043000 6fd00fbe  ....c. .c.0.o...
 2ee0 63183000 e3de20fe 63043000 6fd00fbd  c.0... .c.0.o...
 2ef0 97d0ffff e780c03b 93015000 93001000  .......;..P.....
 2f00 13010000 63d82000 63043000 6fd00fbb  ....c. .c.0.o...
 2f10 63183000 e3de20fe 63043000 6fd00fba  c.0... .c.0.o...
 2f20 97d0ffff e780c038 93016000 93001000  .......8..`.....
 2f30 1301f0ff 63d82000 63043000 6fd00fb8  ....c. .c.0.o...
 2f40 63183000 e3de20fe 63043000 6fd00fb7  c.0... .c.0.o...
 2f50 97d0ffff e780c035 93017000 9300f0ff  .......5..p.....
 2f60 1301e0ff 63d82000 63043000 6fd00fb5  ....c. .c.0.o...
 2f70 63183000 e3de20fe 63043000 6fd00fb4  c.0... .c.0.o...
 2f80 97d0ffff e780c032 93018000 93000000  .......2........
 2f90 13011000 63d42000 63163000 63043000  ....c. .c.0.c.0.
 2fa0 6fd0cfb1 e3dc20fe 97d0ffff e7804030  o..... .......@0
 2fb0 93019000 9300f0ff 13011000 63d42000  ............c. .
 2fc0 63163000 63043000 6fd04faf e3dc20fe  c.0.c.0.o.O... .
 2fd0 97d0ffff e780c02d 9301a000 9300e0ff  .......-........
 2fe0 1301f0ff 63d42000 63163000 63043000  ....c. .c.0.c.0.
 2ff0 6fd0cfac e3dc20fe 97d0ffff e780402b  o..... .......@+
 3000 9301b000 9300e0ff 13011000 63d42000  ............c. .
 3010 63163000 63043000 6fd04faa e3dc20fe  c.0.c.0.o.O... .
 3020 97d0ffff e780c028 67800f00 13050000  .......(g.......
 3030 2320a600 93012000 93000000 13011000  # .... .........
 3040 63e82000 63043000 6fd04fa7 63183000  c. .c.0.o.O.c.0.
 3050 e3ee20fe 63043000 6fd04fa6 97d0ffff  .. .c.0.o.O.....
 3060 e7800025 93013000 9300e0ff 1301f0ff  ...%..0.........
 3070 63e82000 63043000 6fd04fa4 63183000  c. .c.0.o.O.c.0.
 3080 e3ee20fe 63043000 6fd04fa3 97d0ffff  .. .c.0.o.O.....
 3090 e7800022 93014000 93000000 1301f0ff  ..."..@.........
 30a0 63e82000 63043000 6fd04fa1 63183000  c. .c.0.o.O.c.0.
 30b0 e3ee20fe 63043000 6fd04fa0 97d0ffff  .. .c.0.o.O.....
 30c0 e780001f 93015000 93001000 13010000  ......P.........
 30d0 63e42000 63163000 63043000 6fd00f9e  c. .c.0.c.0.o...
 30e0 e3ec20fe 97d0ffff e780801c 93016000  .. ...........`.
 30f0 9300f0ff 1301e0ff 63e42000 63163000  ........c. .c.0.
 3100 63043000 6fd08f9b e3ec20fe 97d0ffff  c.0.o..... .....
 3110 e780001a 93017000 9300f0ff 13010000  ......p.........
 3120 63e42000 63163000 63043000 6fd00f99  c. .c.0.c.0.o...
 3130 e3ec20fe 97d0ffff e7808017 93018000  .. .............
 3140 b7000080 37010080 1301f1ff 63e42000  ....7.......c. .
 3150 63163000 63043000 6fd04f96 e3ec20fe  c.0.c.0.o.O... .
 3160 97d0ffff e780c014 67800f00 13050000  ........g.......
 3170 2320a600 93012000 93000000 13010000  # .... .........
 3180 63f82000 63043000 6fd04f93 63183000  c. .c.0.o.O.c.0.
 3190 e3fe20fe 63043000 6fd04f92 97d0ffff  .. .c.0.o.O.....
 31a0 e7800011 93013000 93001000 13011000  ......0.........
 31b0 63f82000 63043000 6fd04f90 63183000  c. .c.0.o.O.c.0.
 31c0 e3fe20fe 63043000 6fd04f8f 97d0ffff  .. .c.0.o.O.....
 31d0 e780000e 93014000 9300f0ff 1301f0ff  ......@.........
 31e0 63f82000 63043000 6fd04f8d 63183000  c. .c.0.o.O.c.0.
 31f0 e3fe20fe 63043000 6fd04f8c 97d0ffff  .. .c.0.o.O.....
 3200 e780000b 93015000 93001000 13010000  ......P.........
 3210 63f82000 63043000 6fd04f8a 63183000  c. .c.0.o.O.c.0.
 3220 e3fe20fe 63043000 6fd04f89 97d0ffff  .. .c.0.o.O.....
 3230 e7800008 93016000 9300f0ff 1301e0ff  ......`.........
 3240 63f82000 63043000 6fd04f87 63183000  c. .c.0.o.O.c.0.
 3250 e3fe20fe 63043000 6fd04f86 97d0ffff  .. .c.0.o.O.....
 3260 e7800005 93017000 9300f0ff 13010000  ......p.........
 3270 63f82000 63043000 6fd04f84 63183000  c. .c.0.o.O.c.0.
 3280 e3fe20fe 63043000 6fd04f83 97d0ffff  .. .c.0.o.O.....
 3290 e7800002 93018000 93000000 13011000  ................
 32a0 63f42000 63163000 63043000 6fd00f81  c. .c.0.c.0.o...
 32b0 e3fc20fe 97d0ffff e78080ff 93019000  .. .............
 32c0 9300e0ff 1301f0ff 63f42000 63163000  ........c. .c.0.
 32d0 63043000 6fc09ffe e3fc20fe 97d0ffff  c.0.o..... .....
 32e0 e78000fd 9301a000 93000000 1301f0ff  ................
 32f0 63f42000 63163000 63043000 6fc01ffc  c. .c.0.c.0.o...
 3300 e3fc20fe 97d0ffff e78080fa 9301b000  .. .............
 3310 b7000080 9380f0ff 37010080 63f42000  ........7...c. .
 3320 63163000 63043000 6fc05ff9 e3fc20fe  c.0.c.0.o._... .
 3330 97d0ffff e780c0f7 67800f00 13050000  ........g.......
 3340 2320a600 13000000 172e0000 130ece71  # .............q
 3350 ef0d4000 330ebe41 b72e0000 938e0e71  ..@.3..A.......q
 3360 93012000 6304de01 6fc05ff5 97d0ffff  .. .c...o._.....
 3370 e78000f4 13000000 17eeffff 130ece8f  ................
 3380 ef0d4000 330ebe41 b7eeffff 938e0e8f  ..@.3..A........
 3390 93013000 6304de01 6fc05ff2 97d0ffff  ..0.c...o._.....
 33a0 e78000f1 67800f00 13050000 2320a600  ....g.......# ..
 33b0 b7000000 930e0000 93012000 6384d001  .......... .c...
 33c0 6fc0dfef 97d0ffff e78080ee b7f0ffff  o...............
 33d0 93d01040 930e0080 93013000 6384d001  ...@......0.c...
 33e0 6fc0dfed 97d0ffff e78080ec b7f0ff7f  o...............
 33f0 93d04041 930ef07f 93014000 6384d001  ..@A......@.c...
 3400 6fc0dfeb 97d0ffff e78080ea b7000080  o...............
 3410 93d04041 930e0080 93015000 6384d001  ..@A......P.c...
 3420 6fc0dfe9 97d0ffff e78080e8 37000080  o...........7...
 3430 930e0000 93016000 6304d001 6fc01fe8  ......`.c...o...
 3440 97d0ffff e780c0e6 67800f00 13050000  ........g.......
 3450 2320a600 93012000 93000000 6f020001  # .... .....o...
 3460 13000000 13000000 6fc05fe5 17010000  ........o._.....
 3470 130141ff 63044100 6fc05fe4 97d0ffff  ..A.c.A.o._.....
 3480 e78000e3 93001000 6f004001 93801000  ........o.@.....
 3490 93801000 93801000 93801000 93801000  ................
 34a0 93801000 930e3000 93013000 6384d001  ......0...0.c...
 34b0 6fc0dfe0 97d0ffff e78080df 67800f00  o...........g...
 34c0 13050000 2320a600 93012000 93020000  ....# .... .....
 34d0 17030000 13030301 e7020300 6fc01fde  ............o...
 34e0 17030000 1303c3ff 63846200 6fc01fdd  ........c.b.o...
 34f0 97d0ffff e780c0db 93014000 13020000  ..........@.....
 3500 17030000 13034301 e7090300 63043000  ......C.....c.0.
 3510 6fc0dfda 13021200 93022000 e31252fe  o......... ...R.
 3520 97d0ffff e780c0d8 93015000 13020000  ..........P.....
 3530 17030000 13038301 13000000 e7090300  ................
 3540 63043000 6fc09fd7 13021200 93022000  c.0.o......... .
 3550 e31052fe 97d0ffff e78080d5 93016000  ..R...........`.
 3560 13020000 17030000 1303c301 13000000  ................
 3570 13000000 e7090300 63043000 6fc01fd4  ........c.0.o...
 3580 13021200 93022000 e31e52fc 97d0ffff  ...... ...R.....
 3590 e78000d2 67800f00 13050000 2320a600  ....g.......# ..
 35a0 97100000 938080a5 039f0000 930ef00f  ................
 35b0 93012000 6304df01 6fc05fd0 97d0ffff  .. .c...o._.....
 35c0 e78000cf 97100000 938040a3 039f2000  ..........@... .
 35d0 930e00f0 93013000 6304df01 6fc01fce  ......0.c...o...
 35e0 97d0ffff e780c0cc 97100000 938000a1  ................
 35f0 039f4000 b71e0000 938e0eff 93014000  ..@...........@.
 3600 6304df01 6fc09fcb 97d0ffff e78040ca  c...o.........@.
 3610 97100000 9380809e 039f6000 b7feffff  ..........`.....
 3620 938efe00 93015000 6304df01 6fc01fc9  ......P.c...o...
 3630 97d0ffff e780c0c7 97100000 9380609c  ..............`.
 3640 039fa0ff 930ef00f 93016000 6304df01  ..........`.c...
 3650 6fc0dfc6 97d0ffff e78080c5 97100000  o...............
 3660 9380209a 039fc0ff 930e00f0 93017000  .. ...........p.
 3670 6304df01 6fc09fc4 97d0ffff e78040c3  c...o.........@.
 3680 97100000 9380e097 039fe0ff b71e0000  ................
 3690 938e0eff 93018000 6304df01 6fc01fc2  ........c...o...
 36a0 97d0ffff e780c0c0 97100000 93806095  ..............`.
 36b0 039f0000 b7feffff 938efe00 93019000  ................
 36c0 6304df01 6fc09fbf 97d0ffff e78040be  c...o.........@.
 36d0 97100000 93808092 938000fe 83920002  ................
 36e0 930ef00f 9301a000 6384d201 6fc01fbd  ........c...o...
 36f0 97d0ffff e780c0bb 97100000 93800090  ................
 3700 9380b0ff 83927000 930e00f0 9301b000  ......p.........
 3710 6384d201 6fc09fba 97d0ffff e78040b9  c...o.........@.
 3720 67800f00 13050000 2320a600 13151500  g.......# ......
 3730 97100000 9380008d 038f0000 930ef0ff  ................
 3740 93012000 6304df01 6fc05fb7 97d0ffff  .. .c...o._.....
 3750 e78000b6 97100000 9380c08a 038f1000  ................
 3760 930e0000 93013000 6304df01 6fc01fb5  ......0.c...o...
 3770 97d0ffff e780c0b3 97100000 93808088  ................
 3780 038f2000 930e00ff 93014000 6304df01  .. .......@.c...
 3790 6fc0dfb2 97d0ffff e78080b1 97100000  o...............
 37a0 93804086 038f3000 930ef000 93015000  ..@...0.......P.
 37b0 6304df01 6fc09fb0 97d0ffff e78040af  c...o.........@.
 37c0 97100000 93803084 038fd0ff 930ef0ff  ......0.........
 37d0 93016000 6304df01 6fc05fae 97d0ffff  ..`.c...o._.....
 37e0 e78000ad 97100000 9380f081 038fe0ff  ................
 37f0 930e0000 93017000 6304df01 6fc01fac  ......p.c...o...
 3800 97d0ffff e780c0aa 97000000 9380b07f  ................
 3810 038ff0ff 930e00ff 93018000 6304df01  ............c...
 3820 6fc0dfa9 97d0ffff e78080a8 97000000  o...............
 3830 9380707d 038f0000 930ef000 93019000  ..p}............
 3840 6304df01 6fc09fa7 97d0ffff e78040a6  c...o.........@.
 3850 97000000 9380007b 938000fe 83820002  .......{........
 3860 930ef0ff 9301a000 6384d201 6fc01fa5  ........c...o...
 3870 97d0ffff e780c0a3 97000000 93808078  ...............x
 3880 9380a0ff 83827000 930e0000 9301b000  ......p.........
 3890 6384d201 6fc09fa2 97d0ffff e78040a1  c...o.........@.
 38a0 67800f00 13050000 2320a600 13151500  g.......# ......
 38b0 97000000 93800075 03cf0000 930ef00f  .......u........
 38c0 93012000 6304df01 6fc05f9f 97d0ffff  .. .c...o._.....
 38d0 e780009e 97000000 9380c072 03cf1000  ...........r....
 38e0 930e0000 93013000 6304df01 6fc01f9d  ......0.c...o...
 38f0 97d0ffff e780c09b 97000000 93808070  ...............p
 3900 03cf2000 930e000f 93014000 6304df01  .. .......@.c...
 3910 6fc0df9a 97d0ffff e7808099 97000000  o...............
 3920 9380406e 03cf3000 930ef000 93015000  ..@n..0.......P.
 3930 6304df01 6fc09f98 97d0ffff e7804097  c...o.........@.
 3940 97000000 9380306c 03cfd0ff 930ef00f  ......0l........
 3950 93016000 6304df01 6fc05f96 97d0ffff  ..`.c...o._.....
 3960 e7800095 97000000 9380f069 03cfe0ff  ...........i....
 3970 930e0000 93017000 6304df01 6fc01f94  ......p.c...o...
 3980 97d0ffff e780c092 97000000 9380b067  ...............g
 3990 03cff0ff 930e000f 93018000 6304df01  ............c...
 39a0 6fc0df91 97d0ffff e7808090 97000000  o...............
 39b0 93807065 03cf0000 930ef000 93019000  ..pe............
 39c0 6304df01 6fc09f8f 97d0ffff e780408e  c...o.........@.
 39d0 97000000 93800063 938000fe 83c20002  .......c........
 39e0 930ef00f 9301a000 6384d201 6fc01f8d  ........c...o...
 39f0 97d0ffff e780c08b 97000000 93808060  ...............`
 3a00 9380a0ff 83c27000 930e0000 9301b000  ......p.........
 3a10 6384d201 6fc09f8a 97d0ffff e7804089  c...o.........@.
 3a20 67800f00 13050000 2320a600 13151500  g.......# ......
 3a30 97000000 9380805c 03df0000 930ef00f  .......\........
 3a40 93012000 6304df01 6fc05f87 97d0ffff  .. .c...o._.....
 3a50 e7800086 97000000 9380405a 03df2000  ..........@Z.. .
 3a60 b70e0100 938e0ef0 93013000 6304df01  ..........0.c...
 3a70 6fc0df84 97d0ffff e7808083 97000000  o...............
 3a80 9380c057 03df4000 b71e0000 938e0eff  ...W..@.........
 3a90 93014000 6304df01 6fc05f82 97d0ffff  ..@.c...o._.....
 3aa0 e7800081 97000000 93804055 03df6000  ..........@U..`.
 3ab0 b7fe0000 938efe00 93015000 6304df01  ..........P.c...
 3ac0 6fc0cfff 97c0ffff e780807e 97000000  o..........~....
 3ad0 93802053 03dfa0ff 930ef00f 93016000  .. S..........`.
 3ae0 6304df01 6fc08ffd 97c0ffff e780407c  c...o.........@|
 3af0 97000000 9380e050 03dfc0ff b70e0100  .......P........
 3b00 938e0ef0 93017000 6304df01 6fc00ffb  ......p.c...o...
 3b10 97c0ffff e780c079 97000000 9380604e  .......y......`N
 3b20 03dfe0ff b71e0000 938e0eff 93018000  ................
 3b30 6304df01 6fc08ff8 97c0ffff e7804077  c...o.........@w
 3b40 97000000 9380e04b 03df0000 b7fe0000  .......K........
 3b50 938efe00 93019000 6304df01 6fc00ff6  ........c...o...
 3b60 97c0ffff e780c074 97000000 93800049  .......t.......I
 3b70 938000fe 83d20002 930ef00f 9301a000  ................
 3b80 6384d201 6fc08ff3 97c0ffff e7804072  c...o.........@r
 3b90 97000000 93808046 9380b0ff 83d27000  .......F......p.
 3ba0 b70e0100 938e0ef0 9301b000 6384d201  ............c...
 3bb0 6fc0cff0 97c0ffff e780806f 67800f00  o..........og...
 3bc0 13050000 2320a600 13151500 97000000  ....# ..........
 3bd0 93802044 1301a00a 23902000 039f0000  .. D....#. .....
 3be0 930ea00a 93012000 6304df01 6fc00fed  ...... .c...o...
 3bf0 97c0ffff e780c06b 97000000 93806041  .......k......`A
 3c00 37b1ffff 130101a0 23912000 039f2000  7.......#. ... .
 3c10 b7beffff 938e0ea0 93013000 6304df01  ..........0.c...
 3c20 6fc0cfe9 97c0ffff e7808068 97000000  o..........h....
 3c30 9380203e 3711efbe 130101aa 23922000  .. >7.......#. .
 3c40 039f4000 b71e0000 938e0eaa 93014000  ..@...........@.
 3c50 6304df01 6fc08fe6 97c0ffff e7804065  c...o.........@e
 3c60 97000000 9380e03a 37a1ffff 1301a100  .......:7.......
 3c70 23932000 039f6000 b7aeffff 938eae00  #. ...`.........
 3c80 93015000 6304df01 6fc04fe3 97c0ffff  ..P.c...o.O.....
 3c90 e7800062 97000000 93808038 1301a00a  ...b.......8....
 3ca0 239d20fe 039fa0ff 930ea00a 93016000  #. ...........`.
 3cb0 6304df01 6fc08fe0 97c0ffff e780405f  c...o.........@_
 3cc0 97000000 9380c035 37b1ffff 130101a0  .......57.......
 3cd0 239e20fe 039fc0ff b7beffff 938e0ea0  #. .............
 3ce0 93017000 6304df01 6fc04fdd 97c0ffff  ..p.c...o.O.....
 3cf0 e780005c 97000000 93808032 37110000  ...\.......27...
 3d00 130101aa 239f20fe 039fe0ff b71e0000  ....#. .........
 3d10 938e0eaa 93018000 6304df01 6fc00fda  ........c...o...
 3d20 97c0ffff e780c058 97000000 9380402f  .......X......@/
 3d30 37a1ffff 1301a100 23902000 039f0000  7.......#. .....
 3d40 b7aeffff 938eae00 93019000 6304df01  ............c...
 3d50 6fc0cfd6 97c0ffff e7808055 97000000  o..........U....
 3d60 9380202c 37513412 13018167 138200fe  .. ,7Q4....g....
 3d70 23102202 83920000 b75e0000 938e8e67  #."......^.....g
 3d80 9301a000 6384d201 6fc04fd3 97c0ffff  ....c...o.O.....
 3d90 e7800052 97000000 9380a028 37310000  ...R.......(71..
 3da0 13018109 9380b0ff a3932000 17020000  .......... .....
 3db0 13024227 83120200 b73e0000 938e8e09  ..B'.....>......
 3dc0 9301b000 6384d201 6fc04fcf 97c0ffff  ....c...o.O.....
 3dd0 e780004e 67800f00 13050000 2320a600  ...Ng.......# ..
 3de0 13151500 97000000 93800022 1301a0fa  ..........."....
 3df0 23802000 038f0000 930ea0fa 93012000  #. ........... .
 3e00 6304df01 6fc08fcb 97c0ffff e780404a  c...o.........@J
 3e10 97000000 9380401f 13010000 a3802000  ......@....... .
 3e20 038f1000 930e0000 93013000 6304df01  ..........0.c...
 3e30 6fc0cfc8 97c0ffff e7808047 97000000  o..........G....
 3e40 9380801c 37f1ffff 130101fa 23812000  ....7.......#. .
 3e50 038f2000 930e00fa 93014000 6304df01  .. .......@.c...
 3e60 6fc0cfc5 97c0ffff e7808044 97000000  o..........D....
 3e70 93808019 1301a000 a3812000 038f3000  .......... ...0.
 3e80 930ea000 93015000 6304df01 6fc00fc3  ......P.c...o...
 3e90 97c0ffff e780c041 97000000 93803017  .......A......0.
 3ea0 1301a0fa a38e20fe 038fd0ff 930ea0fa  ...... .........
 3eb0 93016000 6304df01 6fc04fc0 97c0ffff  ..`.c...o.O.....
 3ec0 e780003f 97000000 93807014 13010000  ...?......p.....
 3ed0 238f20fe 038fe0ff 930e0000 93017000  #. ...........p.
 3ee0 6304df01 6fc08fbd 97c0ffff e780403c  c...o.........@<
 3ef0 97000000 9380b011 130100fa a38f20fe  .............. .
 3f00 038ff0ff 930e00fa 93018000 6304df01  ............c...
 3f10 6fc0cfba 97c0ffff e7808039 97000000  o..........9....
 3f20 9380f00e 1301a000 23802000 038f0000  ........#. .....
 3f30 930ea000 93019000 6304df01 6fc00fb8  ........c...o...
 3f40 97c0ffff e780c036 97000000 9380400c  .......6......@.
 3f50 37513412 13018167 138200fe 23002202  7Q4....g....#.".
 3f60 83820000 930e8007 9301a000 6384d201  ............c...
 3f70 6fc0cfb4 97c0ffff e7808033 97000000  o..........3....
 3f80 93800009 37310000 13018109 9380a0ff  ....71..........
 3f90 a3832000 17020000 13029207 83020200  .. .............
 3fa0 930e80f9 9301b000 6384d201 6fc00fb1  ........c...o...
 3fb0 97c0ffff e780c02f 67800f00 00000000  ......./g.......
Contents of section .data:
 3fc0 d2040000 ff00ff00 00ff00ff f00ff00f  ................
 3fd0 0ff00ff0 efbeadde efbeadde efbeadde  ................
 3fe0 efbeadde efbeadde efbeadde efbeadde  ................
 3ff0 efbeadde efbeadde ff0000ff f00f0ff0  ................
 4000 ff00f00f efefefef efefefef efefefbe  ................
 4010 efbeefbe efbeefbe efbeefbe efbeefbe  ................
 4020 efbe0000 00000000 00000000 00000000  ................
Contents of section .riscv.attributes:
 0000 411d0000 00726973 63760001 13000000  A....riscv......
 0010 05727633 32693270 30000801 0a0b      .rv32i2p0.....  

Disassembly of section .text:

00000000 <int_setup>:
       0:	210002b7          	lui	t0,0x21000
       4:	0002a303          	lw	t1,0(t0) # 21000000 <SSEG+0xff40000>
       8:	06430313          	addi	t1,t1,100
       c:	220002b7          	lui	t0,0x22000
      10:	0062a023          	sw	t1,0(t0) # 22000000 <SSEG+0x10f40000>
      14:	210002b7          	lui	t0,0x21000
      18:	00428293          	addi	t0,t0,4 # 21000004 <SSEG+0xff40004>
      1c:	0002a303          	lw	t1,0(t0)
      20:	220002b7          	lui	t0,0x22000
      24:	00428293          	addi	t0,t0,4 # 22000004 <SSEG+0x10f40004>
      28:	0062a023          	sw	t1,0(t0)
      2c:	00000297          	auipc	t0,0x0
      30:	02c28293          	addi	t0,t0,44 # 58 <INT>
      34:	00004497          	auipc	s1,0x4
      38:	f8c48493          	addi	s1,s1,-116 # 3fc0 <array>
      3c:	30529073          	csrw	mtvec,t0
      40:	30046073          	csrsi	mstatus,8
      44:	000012b7          	lui	t0,0x1
      48:	88028293          	addi	t0,t0,-1920 # 880 <and_test+0x128>
      4c:	3042a073          	csrs	mie,t0
      50:	000068b7          	lui	a7,0x6
      54:	0680006f          	j	bc <main>

00000058 <INT>:
      58:	ff888893          	addi	a7,a7,-8 # 5ff8 <__global_pointer$+0x1838>
      5c:	0058a023          	sw	t0,0(a7)
      60:	0068a223          	sw	t1,4(a7)
      64:	00004297          	auipc	t0,0x4
      68:	f5c28293          	addi	t0,t0,-164 # 3fc0 <array>
      6c:	0002a303          	lw	t1,0(t0)
      70:	00130313          	addi	t1,t1,1
      74:	0062a023          	sw	t1,0(t0)
      78:	110802b7          	lui	t0,0x11080
      7c:	0062a023          	sw	t1,0(t0) # 11080000 <LEDS>
      80:	210002b7          	lui	t0,0x21000
      84:	0002a303          	lw	t1,0(t0) # 21000000 <SSEG+0xff40000>
      88:	06430313          	addi	t1,t1,100
      8c:	220002b7          	lui	t0,0x22000
      90:	0062a023          	sw	t1,0(t0) # 22000000 <SSEG+0x10f40000>
      94:	210002b7          	lui	t0,0x21000
      98:	00428293          	addi	t0,t0,4 # 21000004 <SSEG+0xff40004>
      9c:	0002a303          	lw	t1,0(t0)
      a0:	220002b7          	lui	t0,0x22000
      a4:	00428293          	addi	t0,t0,4 # 22000004 <SSEG+0x10f40004>
      a8:	0062a023          	sw	t1,0(t0)
      ac:	0048a303          	lw	t1,4(a7)
      b0:	0008a283          	lw	t0,0(a7)
      b4:	00888893          	addi	a7,a7,8
      b8:	30200073          	mret

000000bc <main>:
      bc:	11000837          	lui	a6,0x11000
      c0:	110c05b7          	lui	a1,0x110c0
      c4:	11080637          	lui	a2,0x11080

000000c8 <loop>:
      c8:	fff00713          	li	a4,-1
      cc:	00000097          	auipc	ra,0x0
      d0:	1c8080e7          	jalr	456(ra) # 294 <end>
      d4:	1f400fef          	jal	t6,2c8 <add_test>
      d8:	00000097          	auipc	ra,0x0
      dc:	1bc080e7          	jalr	444(ra) # 294 <end>
      e0:	44400fef          	jal	t6,524 <sub_test>
      e4:	00000097          	auipc	ra,0x0
      e8:	1b0080e7          	jalr	432(ra) # 294 <end>
      ec:	66c00fef          	jal	t6,758 <and_test>
      f0:	00000097          	auipc	ra,0x0
      f4:	1a4080e7          	jalr	420(ra) # 294 <end>
      f8:	79400fef          	jal	t6,88c <or_test>
      fc:	00000097          	auipc	ra,0x0
     100:	198080e7          	jalr	408(ra) # 294 <end>
     104:	0c100fef          	jal	t6,9c4 <xor_test>
     108:	00000097          	auipc	ra,0x0
     10c:	18c080e7          	jalr	396(ra) # 294 <end>
     110:	1e900fef          	jal	t6,af8 <sll_test>
     114:	00000097          	auipc	ra,0x0
     118:	180080e7          	jalr	384(ra) # 294 <end>
     11c:	48500fef          	jal	t6,da0 <srl_test>
     120:	00000097          	auipc	ra,0x0
     124:	174080e7          	jalr	372(ra) # 294 <end>
     128:	6e900fef          	jal	t6,1010 <sra_test>
     12c:	00000097          	auipc	ra,0x0
     130:	168080e7          	jalr	360(ra) # 294 <end>
     134:	1e001fef          	jal	t6,1314 <slt_test>
     138:	00000097          	auipc	ra,0x0
     13c:	15c080e7          	jalr	348(ra) # 294 <end>
     140:	43801fef          	jal	t6,1578 <sltu_test>
     144:	00000097          	auipc	ra,0x0
     148:	150080e7          	jalr	336(ra) # 294 <end>
     14c:	69001fef          	jal	t6,17dc <addi_test>
     150:	00000097          	auipc	ra,0x0
     154:	144080e7          	jalr	324(ra) # 294 <end>
     158:	0b501fef          	jal	t6,1a0c <andi_test>
     15c:	00000097          	auipc	ra,0x0
     160:	138080e7          	jalr	312(ra) # 294 <end>
     164:	16d01fef          	jal	t6,1ad0 <ori_test>
     168:	00000097          	auipc	ra,0x0
     16c:	12c080e7          	jalr	300(ra) # 294 <end>
     170:	23101fef          	jal	t6,1ba0 <xori_test>
     174:	00000097          	auipc	ra,0x0
     178:	120080e7          	jalr	288(ra) # 294 <end>
     17c:	2f901fef          	jal	t6,1c74 <slli_test>
     180:	00000097          	auipc	ra,0x0
     184:	114080e7          	jalr	276(ra) # 294 <end>
     188:	4f901fef          	jal	t6,1e80 <srli_test>
     18c:	00000097          	auipc	ra,0x0
     190:	108080e7          	jalr	264(ra) # 294 <end>
     194:	72d01fef          	jal	t6,20c0 <srai_test>
     198:	00000097          	auipc	ra,0x0
     19c:	0fc080e7          	jalr	252(ra) # 294 <end>
     1a0:	17802fef          	jal	t6,2318 <sltiu_test>
     1a4:	00000097          	auipc	ra,0x0
     1a8:	0f0080e7          	jalr	240(ra) # 294 <end>
     1ac:	38402fef          	jal	t6,2530 <slti_test>
     1b0:	00000097          	auipc	ra,0x0
     1b4:	0e4080e7          	jalr	228(ra) # 294 <end>
     1b8:	59002fef          	jal	t6,2748 <lw_test>
     1bc:	00000097          	auipc	ra,0x0
     1c0:	0d8080e7          	jalr	216(ra) # 294 <end>
     1c4:	6fc02fef          	jal	t6,28c0 <sw_test>
     1c8:	00000097          	auipc	ra,0x0
     1cc:	0cc080e7          	jalr	204(ra) # 294 <end>
     1d0:	0d502fef          	jal	t6,2aa4 <beq_test>
     1d4:	00000097          	auipc	ra,0x0
     1d8:	0c0080e7          	jalr	192(ra) # 294 <end>
     1dc:	20502fef          	jal	t6,2be0 <bne_test>
     1e0:	00000097          	auipc	ra,0x0
     1e4:	0b4080e7          	jalr	180(ra) # 294 <end>
     1e8:	33d02fef          	jal	t6,2d24 <blt_test>
     1ec:	00000097          	auipc	ra,0x0
     1f0:	0a8080e7          	jalr	168(ra) # 294 <end>
     1f4:	46d02fef          	jal	t6,2e60 <bge_test>
     1f8:	00000097          	auipc	ra,0x0
     1fc:	09c080e7          	jalr	156(ra) # 294 <end>
     200:	62d02fef          	jal	t6,302c <bltu_test>
     204:	00000097          	auipc	ra,0x0
     208:	090080e7          	jalr	144(ra) # 294 <end>
     20c:	76102fef          	jal	t6,316c <bgeu_test>
     210:	00000097          	auipc	ra,0x0
     214:	084080e7          	jalr	132(ra) # 294 <end>
     218:	12403fef          	jal	t6,333c <auipc_test>
     21c:	00000097          	auipc	ra,0x0
     220:	078080e7          	jalr	120(ra) # 294 <end>
     224:	18403fef          	jal	t6,33a8 <lui_test>
     228:	00000097          	auipc	ra,0x0
     22c:	06c080e7          	jalr	108(ra) # 294 <end>
     230:	21c03fef          	jal	t6,344c <jal_test>
     234:	00000097          	auipc	ra,0x0
     238:	060080e7          	jalr	96(ra) # 294 <end>
     23c:	28403fef          	jal	t6,34c0 <jalr_test>
     240:	00000097          	auipc	ra,0x0
     244:	054080e7          	jalr	84(ra) # 294 <end>
     248:	35003fef          	jal	t6,3598 <lh_test>
     24c:	00000097          	auipc	ra,0x0
     250:	048080e7          	jalr	72(ra) # 294 <end>
     254:	4d003fef          	jal	t6,3724 <lb_test>
     258:	00000097          	auipc	ra,0x0
     25c:	03c080e7          	jalr	60(ra) # 294 <end>
     260:	7c403fef          	jal	t6,3a24 <lhu_test>
     264:	00000097          	auipc	ra,0x0
     268:	030080e7          	jalr	48(ra) # 294 <end>
     26c:	63803fef          	jal	t6,38a4 <lbu_test>
     270:	00000097          	auipc	ra,0x0
     274:	024080e7          	jalr	36(ra) # 294 <end>
     278:	14903fef          	jal	t6,3bc0 <sh_test>
     27c:	00000097          	auipc	ra,0x0
     280:	018080e7          	jalr	24(ra) # 294 <end>
     284:	35503fef          	jal	t6,3dd8 <sb_test>
     288:	00000097          	auipc	ra,0x0
     28c:	00c080e7          	jalr	12(ra) # 294 <end>
     290:	e39ff06f          	j	c8 <loop>

00000294 <end>:
     294:	00082683          	lw	a3,0(a6) # 11000000 <SWITCHES>
     298:	0016f693          	andi	a3,a3,1
     29c:	fe069ce3          	bnez	a3,294 <end>
     2a0:	00170713          	addi	a4,a4,1
     2a4:	00e5a023          	sw	a4,0(a1) # 110c0000 <SSEG>
     2a8:	00008067          	ret

000002ac <update_test>:
     2ac:	00151513          	slli	a0,a0,0x1
     2b0:	00150513          	addi	a0,a0,1
     2b4:	00a62023          	sw	a0,0(a2) # 11080000 <LEDS>
     2b8:	00008067          	ret

000002bc <fail>:
     2bc:	fff00793          	li	a5,-1
     2c0:	00f5a023          	sw	a5,0(a1)
     2c4:	000f8067          	jr	t6

000002c8 <add_test>:
     2c8:	00000513          	li	a0,0
     2cc:	00a62023          	sw	a0,0(a2)
     2d0:	00000093          	li	ra,0
     2d4:	00000113          	li	sp,0
     2d8:	00208f33          	add	t5,ra,sp
     2dc:	00000e93          	li	t4,0
     2e0:	00200193          	li	gp,2
     2e4:	fddf1ce3          	bne	t5,t4,2bc <fail>
     2e8:	00000097          	auipc	ra,0x0
     2ec:	fc4080e7          	jalr	-60(ra) # 2ac <update_test>
     2f0:	00100093          	li	ra,1
     2f4:	00100113          	li	sp,1
     2f8:	00208f33          	add	t5,ra,sp
     2fc:	00200e93          	li	t4,2
     300:	00300193          	li	gp,3
     304:	fbdf1ce3          	bne	t5,t4,2bc <fail>
     308:	00000097          	auipc	ra,0x0
     30c:	fa4080e7          	jalr	-92(ra) # 2ac <update_test>
     310:	00300093          	li	ra,3
     314:	00700113          	li	sp,7
     318:	00208f33          	add	t5,ra,sp
     31c:	00a00e93          	li	t4,10
     320:	00400193          	li	gp,4
     324:	f9df1ce3          	bne	t5,t4,2bc <fail>
     328:	00000097          	auipc	ra,0x0
     32c:	f84080e7          	jalr	-124(ra) # 2ac <update_test>
     330:	00000093          	li	ra,0
     334:	ffff8137          	lui	sp,0xffff8
     338:	00208f33          	add	t5,ra,sp
     33c:	ffff8eb7          	lui	t4,0xffff8
     340:	00500193          	li	gp,5
     344:	f7df1ce3          	bne	t5,t4,2bc <fail>
     348:	00000097          	auipc	ra,0x0
     34c:	f64080e7          	jalr	-156(ra) # 2ac <update_test>
     350:	800000b7          	lui	ra,0x80000
     354:	00000113          	li	sp,0
     358:	00208f33          	add	t5,ra,sp
     35c:	80000eb7          	lui	t4,0x80000
     360:	00600193          	li	gp,6
     364:	f5df1ce3          	bne	t5,t4,2bc <fail>
     368:	00000097          	auipc	ra,0x0
     36c:	f44080e7          	jalr	-188(ra) # 2ac <update_test>
     370:	800000b7          	lui	ra,0x80000
     374:	ffff8137          	lui	sp,0xffff8
     378:	00208f33          	add	t5,ra,sp
     37c:	7fff8eb7          	lui	t4,0x7fff8
     380:	00700193          	li	gp,7
     384:	f3df1ce3          	bne	t5,t4,2bc <fail>
     388:	00000097          	auipc	ra,0x0
     38c:	f24080e7          	jalr	-220(ra) # 2ac <update_test>
     390:	00000093          	li	ra,0
     394:	00008137          	lui	sp,0x8
     398:	fff10113          	addi	sp,sp,-1 # 7fff <__global_pointer$+0x383f>
     39c:	00208f33          	add	t5,ra,sp
     3a0:	00008eb7          	lui	t4,0x8
     3a4:	fffe8e93          	addi	t4,t4,-1 # 7fff <__global_pointer$+0x383f>
     3a8:	00800193          	li	gp,8
     3ac:	f1df18e3          	bne	t5,t4,2bc <fail>
     3b0:	00000097          	auipc	ra,0x0
     3b4:	efc080e7          	jalr	-260(ra) # 2ac <update_test>
     3b8:	800000b7          	lui	ra,0x80000
     3bc:	fff08093          	addi	ra,ra,-1 # 7fffffff <SSEG+0x6ef3ffff>
     3c0:	00000113          	li	sp,0
     3c4:	00208f33          	add	t5,ra,sp
     3c8:	80000eb7          	lui	t4,0x80000
     3cc:	fffe8e93          	addi	t4,t4,-1 # 7fffffff <SSEG+0x6ef3ffff>
     3d0:	00900193          	li	gp,9
     3d4:	efdf14e3          	bne	t5,t4,2bc <fail>
     3d8:	00000097          	auipc	ra,0x0
     3dc:	ed4080e7          	jalr	-300(ra) # 2ac <update_test>
     3e0:	800000b7          	lui	ra,0x80000
     3e4:	fff08093          	addi	ra,ra,-1 # 7fffffff <SSEG+0x6ef3ffff>
     3e8:	00008137          	lui	sp,0x8
     3ec:	fff10113          	addi	sp,sp,-1 # 7fff <__global_pointer$+0x383f>
     3f0:	00208f33          	add	t5,ra,sp
     3f4:	80008eb7          	lui	t4,0x80008
     3f8:	ffee8e93          	addi	t4,t4,-2 # 80007ffe <SSEG+0x6ef47ffe>
     3fc:	00a00193          	li	gp,10
     400:	ebdf1ee3          	bne	t5,t4,2bc <fail>
     404:	00000097          	auipc	ra,0x0
     408:	ea8080e7          	jalr	-344(ra) # 2ac <update_test>
     40c:	800000b7          	lui	ra,0x80000
     410:	00008137          	lui	sp,0x8
     414:	fff10113          	addi	sp,sp,-1 # 7fff <__global_pointer$+0x383f>
     418:	00208f33          	add	t5,ra,sp
     41c:	80008eb7          	lui	t4,0x80008
     420:	fffe8e93          	addi	t4,t4,-1 # 80007fff <SSEG+0x6ef47fff>
     424:	00b00193          	li	gp,11
     428:	e9df1ae3          	bne	t5,t4,2bc <fail>
     42c:	00000097          	auipc	ra,0x0
     430:	e80080e7          	jalr	-384(ra) # 2ac <update_test>
     434:	800000b7          	lui	ra,0x80000
     438:	fff08093          	addi	ra,ra,-1 # 7fffffff <SSEG+0x6ef3ffff>
     43c:	ffff8137          	lui	sp,0xffff8
     440:	00208f33          	add	t5,ra,sp
     444:	7fff8eb7          	lui	t4,0x7fff8
     448:	fffe8e93          	addi	t4,t4,-1 # 7fff7fff <SSEG+0x6ef37fff>
     44c:	00c00193          	li	gp,12
     450:	e7df16e3          	bne	t5,t4,2bc <fail>
     454:	00000097          	auipc	ra,0x0
     458:	e58080e7          	jalr	-424(ra) # 2ac <update_test>
     45c:	00000093          	li	ra,0
     460:	fff00113          	li	sp,-1
     464:	00208f33          	add	t5,ra,sp
     468:	fff00e93          	li	t4,-1
     46c:	00d00193          	li	gp,13
     470:	e5df16e3          	bne	t5,t4,2bc <fail>
     474:	00000097          	auipc	ra,0x0
     478:	e38080e7          	jalr	-456(ra) # 2ac <update_test>
     47c:	fff00093          	li	ra,-1
     480:	00100113          	li	sp,1
     484:	00208f33          	add	t5,ra,sp
     488:	00000e93          	li	t4,0
     48c:	00e00193          	li	gp,14
     490:	e3df16e3          	bne	t5,t4,2bc <fail>
     494:	00000097          	auipc	ra,0x0
     498:	e18080e7          	jalr	-488(ra) # 2ac <update_test>
     49c:	fff00093          	li	ra,-1
     4a0:	fff00113          	li	sp,-1
     4a4:	00208f33          	add	t5,ra,sp
     4a8:	ffe00e93          	li	t4,-2
     4ac:	00f00193          	li	gp,15
     4b0:	e1df16e3          	bne	t5,t4,2bc <fail>
     4b4:	00000097          	auipc	ra,0x0
     4b8:	df8080e7          	jalr	-520(ra) # 2ac <update_test>
     4bc:	00100093          	li	ra,1
     4c0:	80000137          	lui	sp,0x80000
     4c4:	fff10113          	addi	sp,sp,-1 # 7fffffff <SSEG+0x6ef3ffff>
     4c8:	00208f33          	add	t5,ra,sp
     4cc:	80000eb7          	lui	t4,0x80000
     4d0:	01000193          	li	gp,16
     4d4:	dfdf14e3          	bne	t5,t4,2bc <fail>
     4d8:	00000097          	auipc	ra,0x0
     4dc:	dd4080e7          	jalr	-556(ra) # 2ac <update_test>
     4e0:	00d00093          	li	ra,13
     4e4:	00b00113          	li	sp,11
     4e8:	002080b3          	add	ra,ra,sp
     4ec:	01800e93          	li	t4,24
     4f0:	01100193          	li	gp,17
     4f4:	ddd094e3          	bne	ra,t4,2bc <fail>
     4f8:	00000097          	auipc	ra,0x0
     4fc:	db4080e7          	jalr	-588(ra) # 2ac <update_test>
     500:	00e00093          	li	ra,14
     504:	00b00113          	li	sp,11
     508:	00208133          	add	sp,ra,sp
     50c:	01900e93          	li	t4,25
     510:	01200193          	li	gp,18
     514:	dbd114e3          	bne	sp,t4,2bc <fail>
     518:	00000097          	auipc	ra,0x0
     51c:	d94080e7          	jalr	-620(ra) # 2ac <update_test>
     520:	000f8067          	jr	t6

00000524 <sub_test>:
     524:	00000513          	li	a0,0
     528:	00a62023          	sw	a0,0(a2)
     52c:	00000093          	li	ra,0
     530:	00000113          	li	sp,0
     534:	40208f33          	sub	t5,ra,sp
     538:	00000e93          	li	t4,0
     53c:	00200193          	li	gp,2
     540:	d7df1ee3          	bne	t5,t4,2bc <fail>
     544:	00000097          	auipc	ra,0x0
     548:	d68080e7          	jalr	-664(ra) # 2ac <update_test>
     54c:	00100093          	li	ra,1
     550:	00100113          	li	sp,1
     554:	40208f33          	sub	t5,ra,sp
     558:	00000e93          	li	t4,0
     55c:	00300193          	li	gp,3
     560:	d5df1ee3          	bne	t5,t4,2bc <fail>
     564:	00000097          	auipc	ra,0x0
     568:	d48080e7          	jalr	-696(ra) # 2ac <update_test>
     56c:	00300093          	li	ra,3
     570:	00700113          	li	sp,7
     574:	40208f33          	sub	t5,ra,sp
     578:	ffc00e93          	li	t4,-4
     57c:	00400193          	li	gp,4
     580:	d3df1ee3          	bne	t5,t4,2bc <fail>
     584:	00000097          	auipc	ra,0x0
     588:	d28080e7          	jalr	-728(ra) # 2ac <update_test>
     58c:	00000093          	li	ra,0
     590:	ffff8137          	lui	sp,0xffff8
     594:	40208f33          	sub	t5,ra,sp
     598:	00008eb7          	lui	t4,0x8
     59c:	00500193          	li	gp,5
     5a0:	d1df1ee3          	bne	t5,t4,2bc <fail>
     5a4:	00000097          	auipc	ra,0x0
     5a8:	d08080e7          	jalr	-760(ra) # 2ac <update_test>
     5ac:	800000b7          	lui	ra,0x80000
     5b0:	00000113          	li	sp,0
     5b4:	40208f33          	sub	t5,ra,sp
     5b8:	80000eb7          	lui	t4,0x80000
     5bc:	00600193          	li	gp,6
     5c0:	cfdf1ee3          	bne	t5,t4,2bc <fail>
     5c4:	00000097          	auipc	ra,0x0
     5c8:	ce8080e7          	jalr	-792(ra) # 2ac <update_test>
     5cc:	800000b7          	lui	ra,0x80000
     5d0:	ffff8137          	lui	sp,0xffff8
     5d4:	40208f33          	sub	t5,ra,sp
     5d8:	80008eb7          	lui	t4,0x80008
     5dc:	00700193          	li	gp,7
     5e0:	cddf1ee3          	bne	t5,t4,2bc <fail>
     5e4:	00000097          	auipc	ra,0x0
     5e8:	cc8080e7          	jalr	-824(ra) # 2ac <update_test>
     5ec:	00000093          	li	ra,0
     5f0:	00008137          	lui	sp,0x8
     5f4:	fff10113          	addi	sp,sp,-1 # 7fff <__global_pointer$+0x383f>
     5f8:	40208f33          	sub	t5,ra,sp
     5fc:	ffff8eb7          	lui	t4,0xffff8
     600:	001e8e93          	addi	t4,t4,1 # ffff8001 <SSEG+0xeef38001>
     604:	00800193          	li	gp,8
     608:	cbdf1ae3          	bne	t5,t4,2bc <fail>
     60c:	00000097          	auipc	ra,0x0
     610:	ca0080e7          	jalr	-864(ra) # 2ac <update_test>
     614:	800000b7          	lui	ra,0x80000
     618:	fff08093          	addi	ra,ra,-1 # 7fffffff <SSEG+0x6ef3ffff>
     61c:	00000113          	li	sp,0
     620:	40208f33          	sub	t5,ra,sp
     624:	80000eb7          	lui	t4,0x80000
     628:	fffe8e93          	addi	t4,t4,-1 # 7fffffff <SSEG+0x6ef3ffff>
     62c:	00900193          	li	gp,9
     630:	c9df16e3          	bne	t5,t4,2bc <fail>
     634:	00000097          	auipc	ra,0x0
     638:	c78080e7          	jalr	-904(ra) # 2ac <update_test>
     63c:	800000b7          	lui	ra,0x80000
     640:	fff08093          	addi	ra,ra,-1 # 7fffffff <SSEG+0x6ef3ffff>
     644:	00008137          	lui	sp,0x8
     648:	fff10113          	addi	sp,sp,-1 # 7fff <__global_pointer$+0x383f>
     64c:	40208f33          	sub	t5,ra,sp
     650:	7fff8eb7          	lui	t4,0x7fff8
     654:	00a00193          	li	gp,10
     658:	c7df12e3          	bne	t5,t4,2bc <fail>
     65c:	00000097          	auipc	ra,0x0
     660:	c50080e7          	jalr	-944(ra) # 2ac <update_test>
     664:	800000b7          	lui	ra,0x80000
     668:	00008137          	lui	sp,0x8
     66c:	fff10113          	addi	sp,sp,-1 # 7fff <__global_pointer$+0x383f>
     670:	40208f33          	sub	t5,ra,sp
     674:	7fff8eb7          	lui	t4,0x7fff8
     678:	001e8e93          	addi	t4,t4,1 # 7fff8001 <SSEG+0x6ef38001>
     67c:	00b00193          	li	gp,11
     680:	c3df1ee3          	bne	t5,t4,2bc <fail>
     684:	00000097          	auipc	ra,0x0
     688:	c28080e7          	jalr	-984(ra) # 2ac <update_test>
     68c:	800000b7          	lui	ra,0x80000
     690:	fff08093          	addi	ra,ra,-1 # 7fffffff <SSEG+0x6ef3ffff>
     694:	ffff8137          	lui	sp,0xffff8
     698:	40208f33          	sub	t5,ra,sp
     69c:	80008eb7          	lui	t4,0x80008
     6a0:	fffe8e93          	addi	t4,t4,-1 # 80007fff <SSEG+0x6ef47fff>
     6a4:	00c00193          	li	gp,12
     6a8:	c1df1ae3          	bne	t5,t4,2bc <fail>
     6ac:	00000097          	auipc	ra,0x0
     6b0:	c00080e7          	jalr	-1024(ra) # 2ac <update_test>
     6b4:	00000093          	li	ra,0
     6b8:	fff00113          	li	sp,-1
     6bc:	40208f33          	sub	t5,ra,sp
     6c0:	00100e93          	li	t4,1
     6c4:	00d00193          	li	gp,13
     6c8:	bfdf1ae3          	bne	t5,t4,2bc <fail>
     6cc:	00000097          	auipc	ra,0x0
     6d0:	be0080e7          	jalr	-1056(ra) # 2ac <update_test>
     6d4:	fff00093          	li	ra,-1
     6d8:	00100113          	li	sp,1
     6dc:	40208f33          	sub	t5,ra,sp
     6e0:	ffe00e93          	li	t4,-2
     6e4:	00e00193          	li	gp,14
     6e8:	bddf1ae3          	bne	t5,t4,2bc <fail>
     6ec:	00000097          	auipc	ra,0x0
     6f0:	bc0080e7          	jalr	-1088(ra) # 2ac <update_test>
     6f4:	fff00093          	li	ra,-1
     6f8:	fff00113          	li	sp,-1
     6fc:	40208f33          	sub	t5,ra,sp
     700:	00000e93          	li	t4,0
     704:	00f00193          	li	gp,15
     708:	bbdf1ae3          	bne	t5,t4,2bc <fail>
     70c:	00000097          	auipc	ra,0x0
     710:	ba0080e7          	jalr	-1120(ra) # 2ac <update_test>
     714:	00d00093          	li	ra,13
     718:	00b00113          	li	sp,11
     71c:	402080b3          	sub	ra,ra,sp
     720:	00200e93          	li	t4,2
     724:	01000193          	li	gp,16
     728:	b9d09ae3          	bne	ra,t4,2bc <fail>
     72c:	00000097          	auipc	ra,0x0
     730:	b80080e7          	jalr	-1152(ra) # 2ac <update_test>
     734:	00e00093          	li	ra,14
     738:	00b00113          	li	sp,11
     73c:	40208133          	sub	sp,ra,sp
     740:	00300e93          	li	t4,3
     744:	01100193          	li	gp,17
     748:	b7d11ae3          	bne	sp,t4,2bc <fail>
     74c:	00000097          	auipc	ra,0x0
     750:	b60080e7          	jalr	-1184(ra) # 2ac <update_test>
     754:	000f8067          	jr	t6

00000758 <and_test>:
     758:	00000513          	li	a0,0
     75c:	00a62023          	sw	a0,0(a2)
     760:	ff0100b7          	lui	ra,0xff010
     764:	f0008093          	addi	ra,ra,-256 # ff00ff00 <SSEG+0xedf4ff00>
     768:	0f0f1137          	lui	sp,0xf0f1
     76c:	f0f10113          	addi	sp,sp,-241 # f0f0f0f <__sp+0xf0e0f0f>
     770:	0020ff33          	and	t5,ra,sp
     774:	0f001eb7          	lui	t4,0xf001
     778:	f00e8e93          	addi	t4,t4,-256 # f000f00 <__sp+0xeff0f00>
     77c:	00200193          	li	gp,2
     780:	b3df1ee3          	bne	t5,t4,2bc <fail>
     784:	00000097          	auipc	ra,0x0
     788:	b28080e7          	jalr	-1240(ra) # 2ac <update_test>
     78c:	0ff010b7          	lui	ra,0xff01
     790:	ff008093          	addi	ra,ra,-16 # ff00ff0 <__sp+0xfef0ff0>
     794:	f0f0f137          	lui	sp,0xf0f0f
     798:	0f010113          	addi	sp,sp,240 # f0f0f0f0 <SSEG+0xdfe4f0f0>
     79c:	0020ff33          	and	t5,ra,sp
     7a0:	00f00eb7          	lui	t4,0xf00
     7a4:	0f0e8e93          	addi	t4,t4,240 # f000f0 <__sp+0xef00f0>
     7a8:	00300193          	li	gp,3
     7ac:	b1df18e3          	bne	t5,t4,2bc <fail>
     7b0:	00000097          	auipc	ra,0x0
     7b4:	afc080e7          	jalr	-1284(ra) # 2ac <update_test>
     7b8:	00ff00b7          	lui	ra,0xff0
     7bc:	0ff08093          	addi	ra,ra,255 # ff00ff <__sp+0xfe00ff>
     7c0:	0f0f1137          	lui	sp,0xf0f1
     7c4:	f0f10113          	addi	sp,sp,-241 # f0f0f0f <__sp+0xf0e0f0f>
     7c8:	0020ff33          	and	t5,ra,sp
     7cc:	000f0eb7          	lui	t4,0xf0
     7d0:	00fe8e93          	addi	t4,t4,15 # f000f <__sp+0xe000f>
     7d4:	00400193          	li	gp,4
     7d8:	afdf12e3          	bne	t5,t4,2bc <fail>
     7dc:	00000097          	auipc	ra,0x0
     7e0:	ad0080e7          	jalr	-1328(ra) # 2ac <update_test>
     7e4:	f00ff0b7          	lui	ra,0xf00ff
     7e8:	00f08093          	addi	ra,ra,15 # f00ff00f <SSEG+0xdf03f00f>
     7ec:	f0f0f137          	lui	sp,0xf0f0f
     7f0:	0f010113          	addi	sp,sp,240 # f0f0f0f0 <SSEG+0xdfe4f0f0>
     7f4:	0020ff33          	and	t5,ra,sp
     7f8:	f000feb7          	lui	t4,0xf000f
     7fc:	00500193          	li	gp,5
     800:	abdf1ee3          	bne	t5,t4,2bc <fail>
     804:	00000097          	auipc	ra,0x0
     808:	aa8080e7          	jalr	-1368(ra) # 2ac <update_test>
     80c:	ff0100b7          	lui	ra,0xff010
     810:	f0008093          	addi	ra,ra,-256 # ff00ff00 <SSEG+0xedf4ff00>
     814:	0f0f1137          	lui	sp,0xf0f1
     818:	f0f10113          	addi	sp,sp,-241 # f0f0f0f <__sp+0xf0e0f0f>
     81c:	0020f0b3          	and	ra,ra,sp
     820:	0f001eb7          	lui	t4,0xf001
     824:	f00e8e93          	addi	t4,t4,-256 # f000f00 <__sp+0xeff0f00>
     828:	00600193          	li	gp,6
     82c:	a9d098e3          	bne	ra,t4,2bc <fail>
     830:	00000097          	auipc	ra,0x0
     834:	a7c080e7          	jalr	-1412(ra) # 2ac <update_test>
     838:	0ff010b7          	lui	ra,0xff01
     83c:	ff008093          	addi	ra,ra,-16 # ff00ff0 <__sp+0xfef0ff0>
     840:	f0f0f137          	lui	sp,0xf0f0f
     844:	0f010113          	addi	sp,sp,240 # f0f0f0f0 <SSEG+0xdfe4f0f0>
     848:	0020f133          	and	sp,ra,sp
     84c:	00f00eb7          	lui	t4,0xf00
     850:	0f0e8e93          	addi	t4,t4,240 # f000f0 <__sp+0xef00f0>
     854:	00700193          	li	gp,7
     858:	a7d112e3          	bne	sp,t4,2bc <fail>
     85c:	00000097          	auipc	ra,0x0
     860:	a50080e7          	jalr	-1456(ra) # 2ac <update_test>
     864:	ff0100b7          	lui	ra,0xff010
     868:	f0008093          	addi	ra,ra,-256 # ff00ff00 <SSEG+0xedf4ff00>
     86c:	0010f0b3          	and	ra,ra,ra
     870:	ff010eb7          	lui	t4,0xff010
     874:	f00e8e93          	addi	t4,t4,-256 # ff00ff00 <SSEG+0xedf4ff00>
     878:	00800193          	li	gp,8
     87c:	a5d090e3          	bne	ra,t4,2bc <fail>
     880:	00000097          	auipc	ra,0x0
     884:	a2c080e7          	jalr	-1492(ra) # 2ac <update_test>
     888:	000f8067          	jr	t6

0000088c <or_test>:
     88c:	00000513          	li	a0,0
     890:	00a62023          	sw	a0,0(a2)
     894:	ff0100b7          	lui	ra,0xff010
     898:	f0008093          	addi	ra,ra,-256 # ff00ff00 <SSEG+0xedf4ff00>
     89c:	0f0f1137          	lui	sp,0xf0f1
     8a0:	f0f10113          	addi	sp,sp,-241 # f0f0f0f <__sp+0xf0e0f0f>
     8a4:	0020ef33          	or	t5,ra,sp
     8a8:	ff100eb7          	lui	t4,0xff100
     8ac:	f0fe8e93          	addi	t4,t4,-241 # ff0fff0f <SSEG+0xee03ff0f>
     8b0:	00200193          	li	gp,2
     8b4:	a1df14e3          	bne	t5,t4,2bc <fail>
     8b8:	00000097          	auipc	ra,0x0
     8bc:	9f4080e7          	jalr	-1548(ra) # 2ac <update_test>
     8c0:	0ff010b7          	lui	ra,0xff01
     8c4:	ff008093          	addi	ra,ra,-16 # ff00ff0 <__sp+0xfef0ff0>
     8c8:	f0f0f137          	lui	sp,0xf0f0f
     8cc:	0f010113          	addi	sp,sp,240 # f0f0f0f0 <SSEG+0xdfe4f0f0>
     8d0:	0020ef33          	or	t5,ra,sp
     8d4:	fff10eb7          	lui	t4,0xfff10
     8d8:	ff0e8e93          	addi	t4,t4,-16 # fff0fff0 <SSEG+0xeee4fff0>
     8dc:	00300193          	li	gp,3
     8e0:	9ddf1ee3          	bne	t5,t4,2bc <fail>
     8e4:	00000097          	auipc	ra,0x0
     8e8:	9c8080e7          	jalr	-1592(ra) # 2ac <update_test>
     8ec:	00ff00b7          	lui	ra,0xff0
     8f0:	0ff08093          	addi	ra,ra,255 # ff00ff <__sp+0xfe00ff>
     8f4:	0f0f1137          	lui	sp,0xf0f1
     8f8:	f0f10113          	addi	sp,sp,-241 # f0f0f0f <__sp+0xf0e0f0f>
     8fc:	0020ef33          	or	t5,ra,sp
     900:	0fff1eb7          	lui	t4,0xfff1
     904:	fffe8e93          	addi	t4,t4,-1 # fff0fff <__sp+0xffe0fff>
     908:	00400193          	li	gp,4
     90c:	9bdf18e3          	bne	t5,t4,2bc <fail>
     910:	00000097          	auipc	ra,0x0
     914:	99c080e7          	jalr	-1636(ra) # 2ac <update_test>
     918:	f00ff0b7          	lui	ra,0xf00ff
     91c:	00f08093          	addi	ra,ra,15 # f00ff00f <SSEG+0xdf03f00f>
     920:	f0f0f137          	lui	sp,0xf0f0f
     924:	0f010113          	addi	sp,sp,240 # f0f0f0f0 <SSEG+0xdfe4f0f0>
     928:	0020ef33          	or	t5,ra,sp
     92c:	f0fffeb7          	lui	t4,0xf0fff
     930:	0ffe8e93          	addi	t4,t4,255 # f0fff0ff <SSEG+0xdff3f0ff>
     934:	00500193          	li	gp,5
     938:	99df12e3          	bne	t5,t4,2bc <fail>
     93c:	00000097          	auipc	ra,0x0
     940:	970080e7          	jalr	-1680(ra) # 2ac <update_test>
     944:	ff0100b7          	lui	ra,0xff010
     948:	f0008093          	addi	ra,ra,-256 # ff00ff00 <SSEG+0xedf4ff00>
     94c:	0f0f1137          	lui	sp,0xf0f1
     950:	f0f10113          	addi	sp,sp,-241 # f0f0f0f <__sp+0xf0e0f0f>
     954:	0020e0b3          	or	ra,ra,sp
     958:	ff100eb7          	lui	t4,0xff100
     95c:	f0fe8e93          	addi	t4,t4,-241 # ff0fff0f <SSEG+0xee03ff0f>
     960:	00600193          	li	gp,6
     964:	95d09ce3          	bne	ra,t4,2bc <fail>
     968:	00000097          	auipc	ra,0x0
     96c:	944080e7          	jalr	-1724(ra) # 2ac <update_test>
     970:	ff0100b7          	lui	ra,0xff010
     974:	f0008093          	addi	ra,ra,-256 # ff00ff00 <SSEG+0xedf4ff00>
     978:	0f0f1137          	lui	sp,0xf0f1
     97c:	f0f10113          	addi	sp,sp,-241 # f0f0f0f <__sp+0xf0e0f0f>
     980:	0020e133          	or	sp,ra,sp
     984:	ff100eb7          	lui	t4,0xff100
     988:	f0fe8e93          	addi	t4,t4,-241 # ff0fff0f <SSEG+0xee03ff0f>
     98c:	00700193          	li	gp,7
     990:	93d116e3          	bne	sp,t4,2bc <fail>
     994:	00000097          	auipc	ra,0x0
     998:	918080e7          	jalr	-1768(ra) # 2ac <update_test>
     99c:	ff0100b7          	lui	ra,0xff010
     9a0:	f0008093          	addi	ra,ra,-256 # ff00ff00 <SSEG+0xedf4ff00>
     9a4:	0010e0b3          	or	ra,ra,ra
     9a8:	ff010eb7          	lui	t4,0xff010
     9ac:	f00e8e93          	addi	t4,t4,-256 # ff00ff00 <SSEG+0xedf4ff00>
     9b0:	00800193          	li	gp,8
     9b4:	91d094e3          	bne	ra,t4,2bc <fail>
     9b8:	00000097          	auipc	ra,0x0
     9bc:	8f4080e7          	jalr	-1804(ra) # 2ac <update_test>
     9c0:	000f8067          	jr	t6

000009c4 <xor_test>:
     9c4:	00000513          	li	a0,0
     9c8:	00a62023          	sw	a0,0(a2)
     9cc:	ff0100b7          	lui	ra,0xff010
     9d0:	f0008093          	addi	ra,ra,-256 # ff00ff00 <SSEG+0xedf4ff00>
     9d4:	0f0f1137          	lui	sp,0xf0f1
     9d8:	f0f10113          	addi	sp,sp,-241 # f0f0f0f <__sp+0xf0e0f0f>
     9dc:	0020cf33          	xor	t5,ra,sp
     9e0:	f00ffeb7          	lui	t4,0xf00ff
     9e4:	00fe8e93          	addi	t4,t4,15 # f00ff00f <SSEG+0xdf03f00f>
     9e8:	00200193          	li	gp,2
     9ec:	8ddf18e3          	bne	t5,t4,2bc <fail>
     9f0:	00000097          	auipc	ra,0x0
     9f4:	8bc080e7          	jalr	-1860(ra) # 2ac <update_test>
     9f8:	0ff010b7          	lui	ra,0xff01
     9fc:	ff008093          	addi	ra,ra,-16 # ff00ff0 <__sp+0xfef0ff0>
     a00:	f0f0f137          	lui	sp,0xf0f0f
     a04:	0f010113          	addi	sp,sp,240 # f0f0f0f0 <SSEG+0xdfe4f0f0>
     a08:	0020cf33          	xor	t5,ra,sp
     a0c:	ff010eb7          	lui	t4,0xff010
     a10:	f00e8e93          	addi	t4,t4,-256 # ff00ff00 <SSEG+0xedf4ff00>
     a14:	00300193          	li	gp,3
     a18:	8bdf12e3          	bne	t5,t4,2bc <fail>
     a1c:	00000097          	auipc	ra,0x0
     a20:	890080e7          	jalr	-1904(ra) # 2ac <update_test>
     a24:	00ff00b7          	lui	ra,0xff0
     a28:	0ff08093          	addi	ra,ra,255 # ff00ff <__sp+0xfe00ff>
     a2c:	0f0f1137          	lui	sp,0xf0f1
     a30:	f0f10113          	addi	sp,sp,-241 # f0f0f0f <__sp+0xf0e0f0f>
     a34:	0020cf33          	xor	t5,ra,sp
     a38:	0ff01eb7          	lui	t4,0xff01
     a3c:	ff0e8e93          	addi	t4,t4,-16 # ff00ff0 <__sp+0xfef0ff0>
     a40:	00400193          	li	gp,4
     a44:	87df1ce3          	bne	t5,t4,2bc <fail>
     a48:	00000097          	auipc	ra,0x0
     a4c:	864080e7          	jalr	-1948(ra) # 2ac <update_test>
     a50:	f00ff0b7          	lui	ra,0xf00ff
     a54:	00f08093          	addi	ra,ra,15 # f00ff00f <SSEG+0xdf03f00f>
     a58:	f0f0f137          	lui	sp,0xf0f0f
     a5c:	0f010113          	addi	sp,sp,240 # f0f0f0f0 <SSEG+0xdfe4f0f0>
     a60:	0020cf33          	xor	t5,ra,sp
     a64:	00ff0eb7          	lui	t4,0xff0
     a68:	0ffe8e93          	addi	t4,t4,255 # ff00ff <__sp+0xfe00ff>
     a6c:	00500193          	li	gp,5
     a70:	85df16e3          	bne	t5,t4,2bc <fail>
     a74:	00000097          	auipc	ra,0x0
     a78:	838080e7          	jalr	-1992(ra) # 2ac <update_test>
     a7c:	ff0100b7          	lui	ra,0xff010
     a80:	f0008093          	addi	ra,ra,-256 # ff00ff00 <SSEG+0xedf4ff00>
     a84:	0f0f1137          	lui	sp,0xf0f1
     a88:	f0f10113          	addi	sp,sp,-241 # f0f0f0f <__sp+0xf0e0f0f>
     a8c:	0020c0b3          	xor	ra,ra,sp
     a90:	f00ffeb7          	lui	t4,0xf00ff
     a94:	00fe8e93          	addi	t4,t4,15 # f00ff00f <SSEG+0xdf03f00f>
     a98:	00600193          	li	gp,6
     a9c:	83d090e3          	bne	ra,t4,2bc <fail>
     aa0:	00000097          	auipc	ra,0x0
     aa4:	80c080e7          	jalr	-2036(ra) # 2ac <update_test>
     aa8:	ff0100b7          	lui	ra,0xff010
     aac:	f0008093          	addi	ra,ra,-256 # ff00ff00 <SSEG+0xedf4ff00>
     ab0:	0f0f1137          	lui	sp,0xf0f1
     ab4:	f0f10113          	addi	sp,sp,-241 # f0f0f0f <__sp+0xf0e0f0f>
     ab8:	0020c133          	xor	sp,ra,sp
     abc:	f00ffeb7          	lui	t4,0xf00ff
     ac0:	00fe8e93          	addi	t4,t4,15 # f00ff00f <SSEG+0xdf03f00f>
     ac4:	00700193          	li	gp,7
     ac8:	ffd11a63          	bne	sp,t4,2bc <fail>
     acc:	fffff097          	auipc	ra,0xfffff
     ad0:	7e0080e7          	jalr	2016(ra) # 2ac <update_test>
     ad4:	ff0100b7          	lui	ra,0xff010
     ad8:	f0008093          	addi	ra,ra,-256 # ff00ff00 <SSEG+0xedf4ff00>
     adc:	0010c0b3          	xor	ra,ra,ra
     ae0:	00000e93          	li	t4,0
     ae4:	00800193          	li	gp,8
     ae8:	fdd09a63          	bne	ra,t4,2bc <fail>
     aec:	fffff097          	auipc	ra,0xfffff
     af0:	7c0080e7          	jalr	1984(ra) # 2ac <update_test>
     af4:	000f8067          	jr	t6

00000af8 <sll_test>:
     af8:	00000513          	li	a0,0
     afc:	00a62023          	sw	a0,0(a2)
     b00:	00100093          	li	ra,1
     b04:	00000113          	li	sp,0
     b08:	00209f33          	sll	t5,ra,sp
     b0c:	00100e93          	li	t4,1
     b10:	00200193          	li	gp,2
     b14:	fbdf1463          	bne	t5,t4,2bc <fail>
     b18:	fffff097          	auipc	ra,0xfffff
     b1c:	794080e7          	jalr	1940(ra) # 2ac <update_test>
     b20:	00100093          	li	ra,1
     b24:	00100113          	li	sp,1
     b28:	00209f33          	sll	t5,ra,sp
     b2c:	00200e93          	li	t4,2
     b30:	00300193          	li	gp,3
     b34:	f9df1463          	bne	t5,t4,2bc <fail>
     b38:	fffff097          	auipc	ra,0xfffff
     b3c:	774080e7          	jalr	1908(ra) # 2ac <update_test>
     b40:	00100093          	li	ra,1
     b44:	00700113          	li	sp,7
     b48:	00209f33          	sll	t5,ra,sp
     b4c:	08000e93          	li	t4,128
     b50:	00400193          	li	gp,4
     b54:	f7df1463          	bne	t5,t4,2bc <fail>
     b58:	fffff097          	auipc	ra,0xfffff
     b5c:	754080e7          	jalr	1876(ra) # 2ac <update_test>
     b60:	00100093          	li	ra,1
     b64:	00e00113          	li	sp,14
     b68:	00209f33          	sll	t5,ra,sp
     b6c:	00004eb7          	lui	t4,0x4
     b70:	00500193          	li	gp,5
     b74:	f5df1463          	bne	t5,t4,2bc <fail>
     b78:	fffff097          	auipc	ra,0xfffff
     b7c:	734080e7          	jalr	1844(ra) # 2ac <update_test>
     b80:	00100093          	li	ra,1
     b84:	01f00113          	li	sp,31
     b88:	00209f33          	sll	t5,ra,sp
     b8c:	80000eb7          	lui	t4,0x80000
     b90:	00600193          	li	gp,6
     b94:	f3df1463          	bne	t5,t4,2bc <fail>
     b98:	fffff097          	auipc	ra,0xfffff
     b9c:	714080e7          	jalr	1812(ra) # 2ac <update_test>
     ba0:	fff00093          	li	ra,-1
     ba4:	00000113          	li	sp,0
     ba8:	00209f33          	sll	t5,ra,sp
     bac:	fff00e93          	li	t4,-1
     bb0:	00700193          	li	gp,7
     bb4:	f1df1463          	bne	t5,t4,2bc <fail>
     bb8:	fffff097          	auipc	ra,0xfffff
     bbc:	6f4080e7          	jalr	1780(ra) # 2ac <update_test>
     bc0:	fff00093          	li	ra,-1
     bc4:	00100113          	li	sp,1
     bc8:	00209f33          	sll	t5,ra,sp
     bcc:	ffe00e93          	li	t4,-2
     bd0:	00800193          	li	gp,8
     bd4:	efdf1463          	bne	t5,t4,2bc <fail>
     bd8:	fffff097          	auipc	ra,0xfffff
     bdc:	6d4080e7          	jalr	1748(ra) # 2ac <update_test>
     be0:	fff00093          	li	ra,-1
     be4:	00700113          	li	sp,7
     be8:	00209f33          	sll	t5,ra,sp
     bec:	f8000e93          	li	t4,-128
     bf0:	00900193          	li	gp,9
     bf4:	eddf1463          	bne	t5,t4,2bc <fail>
     bf8:	fffff097          	auipc	ra,0xfffff
     bfc:	6b4080e7          	jalr	1716(ra) # 2ac <update_test>
     c00:	fff00093          	li	ra,-1
     c04:	00e00113          	li	sp,14
     c08:	00209f33          	sll	t5,ra,sp
     c0c:	ffffceb7          	lui	t4,0xffffc
     c10:	00a00193          	li	gp,10
     c14:	ebdf1463          	bne	t5,t4,2bc <fail>
     c18:	fffff097          	auipc	ra,0xfffff
     c1c:	694080e7          	jalr	1684(ra) # 2ac <update_test>
     c20:	fff00093          	li	ra,-1
     c24:	01f00113          	li	sp,31
     c28:	00209f33          	sll	t5,ra,sp
     c2c:	80000eb7          	lui	t4,0x80000
     c30:	00b00193          	li	gp,11
     c34:	e9df1463          	bne	t5,t4,2bc <fail>
     c38:	fffff097          	auipc	ra,0xfffff
     c3c:	674080e7          	jalr	1652(ra) # 2ac <update_test>
     c40:	212120b7          	lui	ra,0x21212
     c44:	12108093          	addi	ra,ra,289 # 21212121 <SSEG+0x10152121>
     c48:	00000113          	li	sp,0
     c4c:	00209f33          	sll	t5,ra,sp
     c50:	21212eb7          	lui	t4,0x21212
     c54:	121e8e93          	addi	t4,t4,289 # 21212121 <SSEG+0x10152121>
     c58:	00c00193          	li	gp,12
     c5c:	e7df1063          	bne	t5,t4,2bc <fail>
     c60:	fffff097          	auipc	ra,0xfffff
     c64:	64c080e7          	jalr	1612(ra) # 2ac <update_test>
     c68:	212120b7          	lui	ra,0x21212
     c6c:	12108093          	addi	ra,ra,289 # 21212121 <SSEG+0x10152121>
     c70:	00100113          	li	sp,1
     c74:	00209f33          	sll	t5,ra,sp
     c78:	42424eb7          	lui	t4,0x42424
     c7c:	242e8e93          	addi	t4,t4,578 # 42424242 <SSEG+0x31364242>
     c80:	00d00193          	li	gp,13
     c84:	e3df1c63          	bne	t5,t4,2bc <fail>
     c88:	fffff097          	auipc	ra,0xfffff
     c8c:	624080e7          	jalr	1572(ra) # 2ac <update_test>
     c90:	212120b7          	lui	ra,0x21212
     c94:	12108093          	addi	ra,ra,289 # 21212121 <SSEG+0x10152121>
     c98:	00700113          	li	sp,7
     c9c:	00209f33          	sll	t5,ra,sp
     ca0:	90909eb7          	lui	t4,0x90909
     ca4:	080e8e93          	addi	t4,t4,128 # 90909080 <SSEG+0x7f849080>
     ca8:	00e00193          	li	gp,14
     cac:	e1df1863          	bne	t5,t4,2bc <fail>
     cb0:	fffff097          	auipc	ra,0xfffff
     cb4:	5fc080e7          	jalr	1532(ra) # 2ac <update_test>
     cb8:	212120b7          	lui	ra,0x21212
     cbc:	12108093          	addi	ra,ra,289 # 21212121 <SSEG+0x10152121>
     cc0:	00e00113          	li	sp,14
     cc4:	00209f33          	sll	t5,ra,sp
     cc8:	48484eb7          	lui	t4,0x48484
     ccc:	00f00193          	li	gp,15
     cd0:	dfdf1663          	bne	t5,t4,2bc <fail>
     cd4:	fffff097          	auipc	ra,0xfffff
     cd8:	5d8080e7          	jalr	1496(ra) # 2ac <update_test>
     cdc:	212120b7          	lui	ra,0x21212
     ce0:	12108093          	addi	ra,ra,289 # 21212121 <SSEG+0x10152121>
     ce4:	01f00113          	li	sp,31
     ce8:	00209f33          	sll	t5,ra,sp
     cec:	80000eb7          	lui	t4,0x80000
     cf0:	01000193          	li	gp,16
     cf4:	dddf1463          	bne	t5,t4,2bc <fail>
     cf8:	fffff097          	auipc	ra,0xfffff
     cfc:	5b4080e7          	jalr	1460(ra) # 2ac <update_test>
     d00:	212120b7          	lui	ra,0x21212
     d04:	12108093          	addi	ra,ra,289 # 21212121 <SSEG+0x10152121>
     d08:	fc000113          	li	sp,-64
     d0c:	00209f33          	sll	t5,ra,sp
     d10:	21212eb7          	lui	t4,0x21212
     d14:	121e8e93          	addi	t4,t4,289 # 21212121 <SSEG+0x10152121>
     d18:	01100193          	li	gp,17
     d1c:	dbdf1063          	bne	t5,t4,2bc <fail>
     d20:	fffff097          	auipc	ra,0xfffff
     d24:	58c080e7          	jalr	1420(ra) # 2ac <update_test>
     d28:	212120b7          	lui	ra,0x21212
     d2c:	12108093          	addi	ra,ra,289 # 21212121 <SSEG+0x10152121>
     d30:	fc100113          	li	sp,-63
     d34:	00209f33          	sll	t5,ra,sp
     d38:	42424eb7          	lui	t4,0x42424
     d3c:	242e8e93          	addi	t4,t4,578 # 42424242 <SSEG+0x31364242>
     d40:	01200193          	li	gp,18
     d44:	d7df1c63          	bne	t5,t4,2bc <fail>
     d48:	fffff097          	auipc	ra,0xfffff
     d4c:	564080e7          	jalr	1380(ra) # 2ac <update_test>
     d50:	212120b7          	lui	ra,0x21212
     d54:	12108093          	addi	ra,ra,289 # 21212121 <SSEG+0x10152121>
     d58:	fc700113          	li	sp,-57
     d5c:	00209f33          	sll	t5,ra,sp
     d60:	90909eb7          	lui	t4,0x90909
     d64:	080e8e93          	addi	t4,t4,128 # 90909080 <SSEG+0x7f849080>
     d68:	01300193          	li	gp,19
     d6c:	d5df1863          	bne	t5,t4,2bc <fail>
     d70:	fffff097          	auipc	ra,0xfffff
     d74:	53c080e7          	jalr	1340(ra) # 2ac <update_test>
     d78:	212120b7          	lui	ra,0x21212
     d7c:	12108093          	addi	ra,ra,289 # 21212121 <SSEG+0x10152121>
     d80:	fce00113          	li	sp,-50
     d84:	00209f33          	sll	t5,ra,sp
     d88:	48484eb7          	lui	t4,0x48484
     d8c:	01400193          	li	gp,20
     d90:	d3df1663          	bne	t5,t4,2bc <fail>
     d94:	fffff097          	auipc	ra,0xfffff
     d98:	518080e7          	jalr	1304(ra) # 2ac <update_test>
     d9c:	000f8067          	jr	t6

00000da0 <srl_test>:
     da0:	00000513          	li	a0,0
     da4:	00a62023          	sw	a0,0(a2)
     da8:	800000b7          	lui	ra,0x80000
     dac:	00000113          	li	sp,0
     db0:	0020df33          	srl	t5,ra,sp
     db4:	80000eb7          	lui	t4,0x80000
     db8:	00200193          	li	gp,2
     dbc:	d1df1063          	bne	t5,t4,2bc <fail>
     dc0:	fffff097          	auipc	ra,0xfffff
     dc4:	4ec080e7          	jalr	1260(ra) # 2ac <update_test>
     dc8:	800000b7          	lui	ra,0x80000
     dcc:	00100113          	li	sp,1
     dd0:	0020df33          	srl	t5,ra,sp
     dd4:	40000eb7          	lui	t4,0x40000
     dd8:	00300193          	li	gp,3
     ddc:	cfdf1063          	bne	t5,t4,2bc <fail>
     de0:	fffff097          	auipc	ra,0xfffff
     de4:	4cc080e7          	jalr	1228(ra) # 2ac <update_test>
     de8:	800000b7          	lui	ra,0x80000
     dec:	00700113          	li	sp,7
     df0:	0020df33          	srl	t5,ra,sp
     df4:	01000eb7          	lui	t4,0x1000
     df8:	00400193          	li	gp,4
     dfc:	cddf1063          	bne	t5,t4,2bc <fail>
     e00:	fffff097          	auipc	ra,0xfffff
     e04:	4ac080e7          	jalr	1196(ra) # 2ac <update_test>
     e08:	800000b7          	lui	ra,0x80000
     e0c:	00e00113          	li	sp,14
     e10:	0020df33          	srl	t5,ra,sp
     e14:	00020eb7          	lui	t4,0x20
     e18:	00500193          	li	gp,5
     e1c:	cbdf1063          	bne	t5,t4,2bc <fail>
     e20:	fffff097          	auipc	ra,0xfffff
     e24:	48c080e7          	jalr	1164(ra) # 2ac <update_test>
     e28:	800000b7          	lui	ra,0x80000
     e2c:	00108093          	addi	ra,ra,1 # 80000001 <SSEG+0x6ef40001>
     e30:	01f00113          	li	sp,31
     e34:	0020df33          	srl	t5,ra,sp
     e38:	00100e93          	li	t4,1
     e3c:	00600193          	li	gp,6
     e40:	c7df1e63          	bne	t5,t4,2bc <fail>
     e44:	fffff097          	auipc	ra,0xfffff
     e48:	468080e7          	jalr	1128(ra) # 2ac <update_test>
     e4c:	fff00093          	li	ra,-1
     e50:	00000113          	li	sp,0
     e54:	0020df33          	srl	t5,ra,sp
     e58:	fff00e93          	li	t4,-1
     e5c:	00700193          	li	gp,7
     e60:	c5df1e63          	bne	t5,t4,2bc <fail>
     e64:	fffff097          	auipc	ra,0xfffff
     e68:	448080e7          	jalr	1096(ra) # 2ac <update_test>
     e6c:	fff00093          	li	ra,-1
     e70:	00100113          	li	sp,1
     e74:	0020df33          	srl	t5,ra,sp
     e78:	80000eb7          	lui	t4,0x80000
     e7c:	fffe8e93          	addi	t4,t4,-1 # 7fffffff <SSEG+0x6ef3ffff>
     e80:	00800193          	li	gp,8
     e84:	c3df1c63          	bne	t5,t4,2bc <fail>
     e88:	fffff097          	auipc	ra,0xfffff
     e8c:	424080e7          	jalr	1060(ra) # 2ac <update_test>
     e90:	fff00093          	li	ra,-1
     e94:	00700113          	li	sp,7
     e98:	0020df33          	srl	t5,ra,sp
     e9c:	02000eb7          	lui	t4,0x2000
     ea0:	fffe8e93          	addi	t4,t4,-1 # 1ffffff <__sp+0x1feffff>
     ea4:	00900193          	li	gp,9
     ea8:	c1df1a63          	bne	t5,t4,2bc <fail>
     eac:	fffff097          	auipc	ra,0xfffff
     eb0:	400080e7          	jalr	1024(ra) # 2ac <update_test>
     eb4:	fff00093          	li	ra,-1
     eb8:	00e00113          	li	sp,14
     ebc:	0020df33          	srl	t5,ra,sp
     ec0:	00040eb7          	lui	t4,0x40
     ec4:	fffe8e93          	addi	t4,t4,-1 # 3ffff <__sp+0x2ffff>
     ec8:	00a00193          	li	gp,10
     ecc:	bfdf1863          	bne	t5,t4,2bc <fail>
     ed0:	fffff097          	auipc	ra,0xfffff
     ed4:	3dc080e7          	jalr	988(ra) # 2ac <update_test>
     ed8:	fff00093          	li	ra,-1
     edc:	01f00113          	li	sp,31
     ee0:	0020df33          	srl	t5,ra,sp
     ee4:	00100e93          	li	t4,1
     ee8:	00b00193          	li	gp,11
     eec:	bddf1863          	bne	t5,t4,2bc <fail>
     ef0:	fffff097          	auipc	ra,0xfffff
     ef4:	3bc080e7          	jalr	956(ra) # 2ac <update_test>
     ef8:	212120b7          	lui	ra,0x21212
     efc:	12108093          	addi	ra,ra,289 # 21212121 <SSEG+0x10152121>
     f00:	00000113          	li	sp,0
     f04:	0020df33          	srl	t5,ra,sp
     f08:	21212eb7          	lui	t4,0x21212
     f0c:	121e8e93          	addi	t4,t4,289 # 21212121 <SSEG+0x10152121>
     f10:	00c00193          	li	gp,12
     f14:	bbdf1463          	bne	t5,t4,2bc <fail>
     f18:	fffff097          	auipc	ra,0xfffff
     f1c:	394080e7          	jalr	916(ra) # 2ac <update_test>
     f20:	212120b7          	lui	ra,0x21212
     f24:	12108093          	addi	ra,ra,289 # 21212121 <SSEG+0x10152121>
     f28:	00100113          	li	sp,1
     f2c:	0020df33          	srl	t5,ra,sp
     f30:	10909eb7          	lui	t4,0x10909
     f34:	090e8e93          	addi	t4,t4,144 # 10909090 <__sp+0x108f9090>
     f38:	00d00193          	li	gp,13
     f3c:	b9df1063          	bne	t5,t4,2bc <fail>
     f40:	fffff097          	auipc	ra,0xfffff
     f44:	36c080e7          	jalr	876(ra) # 2ac <update_test>
     f48:	212120b7          	lui	ra,0x21212
     f4c:	12108093          	addi	ra,ra,289 # 21212121 <SSEG+0x10152121>
     f50:	00700113          	li	sp,7
     f54:	0020df33          	srl	t5,ra,sp
     f58:	00424eb7          	lui	t4,0x424
     f5c:	242e8e93          	addi	t4,t4,578 # 424242 <__sp+0x414242>
     f60:	00e00193          	li	gp,14
     f64:	b5df1c63          	bne	t5,t4,2bc <fail>
     f68:	fffff097          	auipc	ra,0xfffff
     f6c:	344080e7          	jalr	836(ra) # 2ac <update_test>
     f70:	212120b7          	lui	ra,0x21212
     f74:	12108093          	addi	ra,ra,289 # 21212121 <SSEG+0x10152121>
     f78:	00e00113          	li	sp,14
     f7c:	0020df33          	srl	t5,ra,sp
     f80:	00008eb7          	lui	t4,0x8
     f84:	484e8e93          	addi	t4,t4,1156 # 8484 <__global_pointer$+0x3cc4>
     f88:	00f00193          	li	gp,15
     f8c:	b3df1863          	bne	t5,t4,2bc <fail>
     f90:	fffff097          	auipc	ra,0xfffff
     f94:	31c080e7          	jalr	796(ra) # 2ac <update_test>
     f98:	212120b7          	lui	ra,0x21212
     f9c:	12108093          	addi	ra,ra,289 # 21212121 <SSEG+0x10152121>
     fa0:	01f00113          	li	sp,31
     fa4:	0020df33          	srl	t5,ra,sp
     fa8:	00000e93          	li	t4,0
     fac:	01000193          	li	gp,16
     fb0:	b1df1663          	bne	t5,t4,2bc <fail>
     fb4:	fffff097          	auipc	ra,0xfffff
     fb8:	2f8080e7          	jalr	760(ra) # 2ac <update_test>
     fbc:	212120b7          	lui	ra,0x21212
     fc0:	12108093          	addi	ra,ra,289 # 21212121 <SSEG+0x10152121>
     fc4:	fc000113          	li	sp,-64
     fc8:	0020df33          	srl	t5,ra,sp
     fcc:	21212eb7          	lui	t4,0x21212
     fd0:	121e8e93          	addi	t4,t4,289 # 21212121 <SSEG+0x10152121>
     fd4:	01100193          	li	gp,17
     fd8:	afdf1263          	bne	t5,t4,2bc <fail>
     fdc:	fffff097          	auipc	ra,0xfffff
     fe0:	2d0080e7          	jalr	720(ra) # 2ac <update_test>
     fe4:	212120b7          	lui	ra,0x21212
     fe8:	12108093          	addi	ra,ra,289 # 21212121 <SSEG+0x10152121>
     fec:	fc100113          	li	sp,-63
     ff0:	0020df33          	srl	t5,ra,sp
     ff4:	10909eb7          	lui	t4,0x10909
     ff8:	090e8e93          	addi	t4,t4,144 # 10909090 <__sp+0x108f9090>
     ffc:	01200193          	li	gp,18
    1000:	abdf1e63          	bne	t5,t4,2bc <fail>
    1004:	fffff097          	auipc	ra,0xfffff
    1008:	2a8080e7          	jalr	680(ra) # 2ac <update_test>
    100c:	000f8067          	jr	t6

00001010 <sra_test>:
    1010:	00000513          	li	a0,0
    1014:	00a62023          	sw	a0,0(a2)
    1018:	800000b7          	lui	ra,0x80000
    101c:	00000113          	li	sp,0
    1020:	4020df33          	sra	t5,ra,sp
    1024:	80000eb7          	lui	t4,0x80000
    1028:	00200193          	li	gp,2
    102c:	a9df1863          	bne	t5,t4,2bc <fail>
    1030:	fffff097          	auipc	ra,0xfffff
    1034:	27c080e7          	jalr	636(ra) # 2ac <update_test>
    1038:	800000b7          	lui	ra,0x80000
    103c:	00100113          	li	sp,1
    1040:	4020df33          	sra	t5,ra,sp
    1044:	c0000eb7          	lui	t4,0xc0000
    1048:	00300193          	li	gp,3
    104c:	a7df1863          	bne	t5,t4,2bc <fail>
    1050:	fffff097          	auipc	ra,0xfffff
    1054:	25c080e7          	jalr	604(ra) # 2ac <update_test>
    1058:	800000b7          	lui	ra,0x80000
    105c:	00700113          	li	sp,7
    1060:	4020df33          	sra	t5,ra,sp
    1064:	ff000eb7          	lui	t4,0xff000
    1068:	00400193          	li	gp,4
    106c:	a5df1863          	bne	t5,t4,2bc <fail>
    1070:	fffff097          	auipc	ra,0xfffff
    1074:	23c080e7          	jalr	572(ra) # 2ac <update_test>
    1078:	800000b7          	lui	ra,0x80000
    107c:	00e00113          	li	sp,14
    1080:	4020df33          	sra	t5,ra,sp
    1084:	fffe0eb7          	lui	t4,0xfffe0
    1088:	00500193          	li	gp,5
    108c:	a3df1863          	bne	t5,t4,2bc <fail>
    1090:	fffff097          	auipc	ra,0xfffff
    1094:	21c080e7          	jalr	540(ra) # 2ac <update_test>
    1098:	800000b7          	lui	ra,0x80000
    109c:	00108093          	addi	ra,ra,1 # 80000001 <SSEG+0x6ef40001>
    10a0:	01f00113          	li	sp,31
    10a4:	4020df33          	sra	t5,ra,sp
    10a8:	fff00e93          	li	t4,-1
    10ac:	00600193          	li	gp,6
    10b0:	a1df1663          	bne	t5,t4,2bc <fail>
    10b4:	fffff097          	auipc	ra,0xfffff
    10b8:	1f8080e7          	jalr	504(ra) # 2ac <update_test>
    10bc:	800000b7          	lui	ra,0x80000
    10c0:	fff08093          	addi	ra,ra,-1 # 7fffffff <SSEG+0x6ef3ffff>
    10c4:	00000113          	li	sp,0
    10c8:	4020df33          	sra	t5,ra,sp
    10cc:	80000eb7          	lui	t4,0x80000
    10d0:	fffe8e93          	addi	t4,t4,-1 # 7fffffff <SSEG+0x6ef3ffff>
    10d4:	00700193          	li	gp,7
    10d8:	9fdf1263          	bne	t5,t4,2bc <fail>
    10dc:	fffff097          	auipc	ra,0xfffff
    10e0:	1d0080e7          	jalr	464(ra) # 2ac <update_test>
    10e4:	800000b7          	lui	ra,0x80000
    10e8:	fff08093          	addi	ra,ra,-1 # 7fffffff <SSEG+0x6ef3ffff>
    10ec:	00100113          	li	sp,1
    10f0:	4020df33          	sra	t5,ra,sp
    10f4:	40000eb7          	lui	t4,0x40000
    10f8:	fffe8e93          	addi	t4,t4,-1 # 3fffffff <SSEG+0x2ef3ffff>
    10fc:	00800193          	li	gp,8
    1100:	9bdf1e63          	bne	t5,t4,2bc <fail>
    1104:	fffff097          	auipc	ra,0xfffff
    1108:	1a8080e7          	jalr	424(ra) # 2ac <update_test>
    110c:	800000b7          	lui	ra,0x80000
    1110:	fff08093          	addi	ra,ra,-1 # 7fffffff <SSEG+0x6ef3ffff>
    1114:	00700113          	li	sp,7
    1118:	4020df33          	sra	t5,ra,sp
    111c:	01000eb7          	lui	t4,0x1000
    1120:	fffe8e93          	addi	t4,t4,-1 # ffffff <__sp+0xfeffff>
    1124:	00900193          	li	gp,9
    1128:	99df1a63          	bne	t5,t4,2bc <fail>
    112c:	fffff097          	auipc	ra,0xfffff
    1130:	180080e7          	jalr	384(ra) # 2ac <update_test>
    1134:	800000b7          	lui	ra,0x80000
    1138:	fff08093          	addi	ra,ra,-1 # 7fffffff <SSEG+0x6ef3ffff>
    113c:	00e00113          	li	sp,14
    1140:	4020df33          	sra	t5,ra,sp
    1144:	00020eb7          	lui	t4,0x20
    1148:	fffe8e93          	addi	t4,t4,-1 # 1ffff <__sp+0xffff>
    114c:	00a00193          	li	gp,10
    1150:	97df1663          	bne	t5,t4,2bc <fail>
    1154:	fffff097          	auipc	ra,0xfffff
    1158:	158080e7          	jalr	344(ra) # 2ac <update_test>
    115c:	800000b7          	lui	ra,0x80000
    1160:	fff08093          	addi	ra,ra,-1 # 7fffffff <SSEG+0x6ef3ffff>
    1164:	01f00113          	li	sp,31
    1168:	4020df33          	sra	t5,ra,sp
    116c:	00000e93          	li	t4,0
    1170:	00b00193          	li	gp,11
    1174:	95df1463          	bne	t5,t4,2bc <fail>
    1178:	fffff097          	auipc	ra,0xfffff
    117c:	134080e7          	jalr	308(ra) # 2ac <update_test>
    1180:	818180b7          	lui	ra,0x81818
    1184:	18108093          	addi	ra,ra,385 # 81818181 <SSEG+0x70758181>
    1188:	00000113          	li	sp,0
    118c:	4020df33          	sra	t5,ra,sp
    1190:	81818eb7          	lui	t4,0x81818
    1194:	181e8e93          	addi	t4,t4,385 # 81818181 <SSEG+0x70758181>
    1198:	00c00193          	li	gp,12
    119c:	93df1063          	bne	t5,t4,2bc <fail>
    11a0:	fffff097          	auipc	ra,0xfffff
    11a4:	10c080e7          	jalr	268(ra) # 2ac <update_test>
    11a8:	818180b7          	lui	ra,0x81818
    11ac:	18108093          	addi	ra,ra,385 # 81818181 <SSEG+0x70758181>
    11b0:	00100113          	li	sp,1
    11b4:	4020df33          	sra	t5,ra,sp
    11b8:	c0c0ceb7          	lui	t4,0xc0c0c
    11bc:	0c0e8e93          	addi	t4,t4,192 # c0c0c0c0 <SSEG+0xafb4c0c0>
    11c0:	00d00193          	li	gp,13
    11c4:	8fdf1c63          	bne	t5,t4,2bc <fail>
    11c8:	fffff097          	auipc	ra,0xfffff
    11cc:	0e4080e7          	jalr	228(ra) # 2ac <update_test>
    11d0:	818180b7          	lui	ra,0x81818
    11d4:	18108093          	addi	ra,ra,385 # 81818181 <SSEG+0x70758181>
    11d8:	00700113          	li	sp,7
    11dc:	4020df33          	sra	t5,ra,sp
    11e0:	ff030eb7          	lui	t4,0xff030
    11e4:	303e8e93          	addi	t4,t4,771 # ff030303 <SSEG+0xedf70303>
    11e8:	00e00193          	li	gp,14
    11ec:	8ddf1863          	bne	t5,t4,2bc <fail>
    11f0:	fffff097          	auipc	ra,0xfffff
    11f4:	0bc080e7          	jalr	188(ra) # 2ac <update_test>
    11f8:	818180b7          	lui	ra,0x81818
    11fc:	18108093          	addi	ra,ra,385 # 81818181 <SSEG+0x70758181>
    1200:	00e00113          	li	sp,14
    1204:	4020df33          	sra	t5,ra,sp
    1208:	fffe0eb7          	lui	t4,0xfffe0
    120c:	606e8e93          	addi	t4,t4,1542 # fffe0606 <SSEG+0xeef20606>
    1210:	00f00193          	li	gp,15
    1214:	8bdf1463          	bne	t5,t4,2bc <fail>
    1218:	fffff097          	auipc	ra,0xfffff
    121c:	094080e7          	jalr	148(ra) # 2ac <update_test>
    1220:	818180b7          	lui	ra,0x81818
    1224:	18108093          	addi	ra,ra,385 # 81818181 <SSEG+0x70758181>
    1228:	01f00113          	li	sp,31
    122c:	4020df33          	sra	t5,ra,sp
    1230:	fff00e93          	li	t4,-1
    1234:	01000193          	li	gp,16
    1238:	89df1263          	bne	t5,t4,2bc <fail>
    123c:	fffff097          	auipc	ra,0xfffff
    1240:	070080e7          	jalr	112(ra) # 2ac <update_test>
    1244:	818180b7          	lui	ra,0x81818
    1248:	18108093          	addi	ra,ra,385 # 81818181 <SSEG+0x70758181>
    124c:	fc000113          	li	sp,-64
    1250:	4020df33          	sra	t5,ra,sp
    1254:	81818eb7          	lui	t4,0x81818
    1258:	181e8e93          	addi	t4,t4,385 # 81818181 <SSEG+0x70758181>
    125c:	01100193          	li	gp,17
    1260:	85df1e63          	bne	t5,t4,2bc <fail>
    1264:	fffff097          	auipc	ra,0xfffff
    1268:	048080e7          	jalr	72(ra) # 2ac <update_test>
    126c:	818180b7          	lui	ra,0x81818
    1270:	18108093          	addi	ra,ra,385 # 81818181 <SSEG+0x70758181>
    1274:	fc100113          	li	sp,-63
    1278:	4020df33          	sra	t5,ra,sp
    127c:	c0c0ceb7          	lui	t4,0xc0c0c
    1280:	0c0e8e93          	addi	t4,t4,192 # c0c0c0c0 <SSEG+0xafb4c0c0>
    1284:	01200193          	li	gp,18
    1288:	83df1a63          	bne	t5,t4,2bc <fail>
    128c:	fffff097          	auipc	ra,0xfffff
    1290:	020080e7          	jalr	32(ra) # 2ac <update_test>
    1294:	818180b7          	lui	ra,0x81818
    1298:	18108093          	addi	ra,ra,385 # 81818181 <SSEG+0x70758181>
    129c:	fc700113          	li	sp,-57
    12a0:	4020df33          	sra	t5,ra,sp
    12a4:	ff030eb7          	lui	t4,0xff030
    12a8:	303e8e93          	addi	t4,t4,771 # ff030303 <SSEG+0xedf70303>
    12ac:	01300193          	li	gp,19
    12b0:	81df1663          	bne	t5,t4,2bc <fail>
    12b4:	fffff097          	auipc	ra,0xfffff
    12b8:	ff8080e7          	jalr	-8(ra) # 2ac <update_test>
    12bc:	818180b7          	lui	ra,0x81818
    12c0:	18108093          	addi	ra,ra,385 # 81818181 <SSEG+0x70758181>
    12c4:	fce00113          	li	sp,-50
    12c8:	4020df33          	sra	t5,ra,sp
    12cc:	fffe0eb7          	lui	t4,0xfffe0
    12d0:	606e8e93          	addi	t4,t4,1542 # fffe0606 <SSEG+0xeef20606>
    12d4:	01400193          	li	gp,20
    12d8:	01df0463          	beq	t5,t4,12e0 <sra_test+0x2d0>
    12dc:	fe1fe06f          	j	2bc <fail>
    12e0:	fffff097          	auipc	ra,0xfffff
    12e4:	fcc080e7          	jalr	-52(ra) # 2ac <update_test>
    12e8:	818180b7          	lui	ra,0x81818
    12ec:	18108093          	addi	ra,ra,385 # 81818181 <SSEG+0x70758181>
    12f0:	fff00113          	li	sp,-1
    12f4:	4020df33          	sra	t5,ra,sp
    12f8:	fff00e93          	li	t4,-1
    12fc:	01500193          	li	gp,21
    1300:	01df0463          	beq	t5,t4,1308 <sra_test+0x2f8>
    1304:	fb9fe06f          	j	2bc <fail>
    1308:	fffff097          	auipc	ra,0xfffff
    130c:	fa4080e7          	jalr	-92(ra) # 2ac <update_test>
    1310:	000f8067          	jr	t6

00001314 <slt_test>:
    1314:	00000513          	li	a0,0
    1318:	00a62023          	sw	a0,0(a2)
    131c:	00000093          	li	ra,0
    1320:	00000113          	li	sp,0
    1324:	0020af33          	slt	t5,ra,sp
    1328:	00000e93          	li	t4,0
    132c:	00200193          	li	gp,2
    1330:	01df0463          	beq	t5,t4,1338 <slt_test+0x24>
    1334:	f89fe06f          	j	2bc <fail>
    1338:	fffff097          	auipc	ra,0xfffff
    133c:	f74080e7          	jalr	-140(ra) # 2ac <update_test>
    1340:	00100093          	li	ra,1
    1344:	00100113          	li	sp,1
    1348:	0020af33          	slt	t5,ra,sp
    134c:	00000e93          	li	t4,0
    1350:	00300193          	li	gp,3
    1354:	01df0463          	beq	t5,t4,135c <slt_test+0x48>
    1358:	f65fe06f          	j	2bc <fail>
    135c:	fffff097          	auipc	ra,0xfffff
    1360:	f50080e7          	jalr	-176(ra) # 2ac <update_test>
    1364:	00300093          	li	ra,3
    1368:	00700113          	li	sp,7
    136c:	0020af33          	slt	t5,ra,sp
    1370:	00100e93          	li	t4,1
    1374:	00400193          	li	gp,4
    1378:	01df0463          	beq	t5,t4,1380 <slt_test+0x6c>
    137c:	f41fe06f          	j	2bc <fail>
    1380:	fffff097          	auipc	ra,0xfffff
    1384:	f2c080e7          	jalr	-212(ra) # 2ac <update_test>
    1388:	00700093          	li	ra,7
    138c:	00300113          	li	sp,3
    1390:	0020af33          	slt	t5,ra,sp
    1394:	00000e93          	li	t4,0
    1398:	00500193          	li	gp,5
    139c:	01df0463          	beq	t5,t4,13a4 <slt_test+0x90>
    13a0:	f1dfe06f          	j	2bc <fail>
    13a4:	fffff097          	auipc	ra,0xfffff
    13a8:	f08080e7          	jalr	-248(ra) # 2ac <update_test>
    13ac:	00000093          	li	ra,0
    13b0:	ffff8137          	lui	sp,0xffff8
    13b4:	0020af33          	slt	t5,ra,sp
    13b8:	00000e93          	li	t4,0
    13bc:	00600193          	li	gp,6
    13c0:	01df0463          	beq	t5,t4,13c8 <slt_test+0xb4>
    13c4:	ef9fe06f          	j	2bc <fail>
    13c8:	fffff097          	auipc	ra,0xfffff
    13cc:	ee4080e7          	jalr	-284(ra) # 2ac <update_test>
    13d0:	800000b7          	lui	ra,0x80000
    13d4:	00000113          	li	sp,0
    13d8:	0020af33          	slt	t5,ra,sp
    13dc:	00100e93          	li	t4,1
    13e0:	00700193          	li	gp,7
    13e4:	01df0463          	beq	t5,t4,13ec <slt_test+0xd8>
    13e8:	ed5fe06f          	j	2bc <fail>
    13ec:	fffff097          	auipc	ra,0xfffff
    13f0:	ec0080e7          	jalr	-320(ra) # 2ac <update_test>
    13f4:	800000b7          	lui	ra,0x80000
    13f8:	ffff8137          	lui	sp,0xffff8
    13fc:	0020af33          	slt	t5,ra,sp
    1400:	00100e93          	li	t4,1
    1404:	00800193          	li	gp,8
    1408:	01df0463          	beq	t5,t4,1410 <slt_test+0xfc>
    140c:	eb1fe06f          	j	2bc <fail>
    1410:	fffff097          	auipc	ra,0xfffff
    1414:	e9c080e7          	jalr	-356(ra) # 2ac <update_test>
    1418:	00000093          	li	ra,0
    141c:	00008137          	lui	sp,0x8
    1420:	fff10113          	addi	sp,sp,-1 # 7fff <__global_pointer$+0x383f>
    1424:	0020af33          	slt	t5,ra,sp
    1428:	00100e93          	li	t4,1
    142c:	00900193          	li	gp,9
    1430:	01df0463          	beq	t5,t4,1438 <slt_test+0x124>
    1434:	e89fe06f          	j	2bc <fail>
    1438:	fffff097          	auipc	ra,0xfffff
    143c:	e74080e7          	jalr	-396(ra) # 2ac <update_test>
    1440:	800000b7          	lui	ra,0x80000
    1444:	fff08093          	addi	ra,ra,-1 # 7fffffff <SSEG+0x6ef3ffff>
    1448:	00000113          	li	sp,0
    144c:	0020af33          	slt	t5,ra,sp
    1450:	00000e93          	li	t4,0
    1454:	00a00193          	li	gp,10
    1458:	01df0463          	beq	t5,t4,1460 <slt_test+0x14c>
    145c:	e61fe06f          	j	2bc <fail>
    1460:	fffff097          	auipc	ra,0xfffff
    1464:	e4c080e7          	jalr	-436(ra) # 2ac <update_test>
    1468:	800000b7          	lui	ra,0x80000
    146c:	fff08093          	addi	ra,ra,-1 # 7fffffff <SSEG+0x6ef3ffff>
    1470:	00008137          	lui	sp,0x8
    1474:	fff10113          	addi	sp,sp,-1 # 7fff <__global_pointer$+0x383f>
    1478:	0020af33          	slt	t5,ra,sp
    147c:	00000e93          	li	t4,0
    1480:	00b00193          	li	gp,11
    1484:	01df0463          	beq	t5,t4,148c <slt_test+0x178>
    1488:	e35fe06f          	j	2bc <fail>
    148c:	fffff097          	auipc	ra,0xfffff
    1490:	e20080e7          	jalr	-480(ra) # 2ac <update_test>
    1494:	800000b7          	lui	ra,0x80000
    1498:	00008137          	lui	sp,0x8
    149c:	fff10113          	addi	sp,sp,-1 # 7fff <__global_pointer$+0x383f>
    14a0:	0020af33          	slt	t5,ra,sp
    14a4:	00100e93          	li	t4,1
    14a8:	00c00193          	li	gp,12
    14ac:	01df0463          	beq	t5,t4,14b4 <slt_test+0x1a0>
    14b0:	e0dfe06f          	j	2bc <fail>
    14b4:	fffff097          	auipc	ra,0xfffff
    14b8:	df8080e7          	jalr	-520(ra) # 2ac <update_test>
    14bc:	800000b7          	lui	ra,0x80000
    14c0:	fff08093          	addi	ra,ra,-1 # 7fffffff <SSEG+0x6ef3ffff>
    14c4:	ffff8137          	lui	sp,0xffff8
    14c8:	0020af33          	slt	t5,ra,sp
    14cc:	00000e93          	li	t4,0
    14d0:	00d00193          	li	gp,13
    14d4:	01df0463          	beq	t5,t4,14dc <slt_test+0x1c8>
    14d8:	de5fe06f          	j	2bc <fail>
    14dc:	fffff097          	auipc	ra,0xfffff
    14e0:	dd0080e7          	jalr	-560(ra) # 2ac <update_test>
    14e4:	00000093          	li	ra,0
    14e8:	fff00113          	li	sp,-1
    14ec:	0020af33          	slt	t5,ra,sp
    14f0:	00000e93          	li	t4,0
    14f4:	00e00193          	li	gp,14
    14f8:	01df0463          	beq	t5,t4,1500 <slt_test+0x1ec>
    14fc:	dc1fe06f          	j	2bc <fail>
    1500:	fffff097          	auipc	ra,0xfffff
    1504:	dac080e7          	jalr	-596(ra) # 2ac <update_test>
    1508:	fff00093          	li	ra,-1
    150c:	00100113          	li	sp,1
    1510:	0020af33          	slt	t5,ra,sp
    1514:	00100e93          	li	t4,1
    1518:	00f00193          	li	gp,15
    151c:	01df0463          	beq	t5,t4,1524 <slt_test+0x210>
    1520:	d9dfe06f          	j	2bc <fail>
    1524:	fffff097          	auipc	ra,0xfffff
    1528:	d88080e7          	jalr	-632(ra) # 2ac <update_test>
    152c:	fff00093          	li	ra,-1
    1530:	fff00113          	li	sp,-1
    1534:	0020af33          	slt	t5,ra,sp
    1538:	00000e93          	li	t4,0
    153c:	01000193          	li	gp,16
    1540:	01df0463          	beq	t5,t4,1548 <slt_test+0x234>
    1544:	d79fe06f          	j	2bc <fail>
    1548:	fffff097          	auipc	ra,0xfffff
    154c:	d64080e7          	jalr	-668(ra) # 2ac <update_test>
    1550:	00e00093          	li	ra,14
    1554:	00d00113          	li	sp,13
    1558:	0020a0b3          	slt	ra,ra,sp
    155c:	00000e93          	li	t4,0
    1560:	01100193          	li	gp,17
    1564:	01d08463          	beq	ra,t4,156c <slt_test+0x258>
    1568:	d55fe06f          	j	2bc <fail>
    156c:	fffff097          	auipc	ra,0xfffff
    1570:	d40080e7          	jalr	-704(ra) # 2ac <update_test>
    1574:	000f8067          	jr	t6

00001578 <sltu_test>:
    1578:	00000513          	li	a0,0
    157c:	00a62023          	sw	a0,0(a2)
    1580:	00000093          	li	ra,0
    1584:	00000113          	li	sp,0
    1588:	0020bf33          	sltu	t5,ra,sp
    158c:	00000e93          	li	t4,0
    1590:	00200193          	li	gp,2
    1594:	01df0463          	beq	t5,t4,159c <sltu_test+0x24>
    1598:	d25fe06f          	j	2bc <fail>
    159c:	fffff097          	auipc	ra,0xfffff
    15a0:	d10080e7          	jalr	-752(ra) # 2ac <update_test>
    15a4:	00100093          	li	ra,1
    15a8:	00100113          	li	sp,1
    15ac:	0020bf33          	sltu	t5,ra,sp
    15b0:	00000e93          	li	t4,0
    15b4:	00300193          	li	gp,3
    15b8:	01df0463          	beq	t5,t4,15c0 <sltu_test+0x48>
    15bc:	d01fe06f          	j	2bc <fail>
    15c0:	fffff097          	auipc	ra,0xfffff
    15c4:	cec080e7          	jalr	-788(ra) # 2ac <update_test>
    15c8:	00300093          	li	ra,3
    15cc:	00700113          	li	sp,7
    15d0:	0020bf33          	sltu	t5,ra,sp
    15d4:	00100e93          	li	t4,1
    15d8:	00400193          	li	gp,4
    15dc:	01df0463          	beq	t5,t4,15e4 <sltu_test+0x6c>
    15e0:	cddfe06f          	j	2bc <fail>
    15e4:	fffff097          	auipc	ra,0xfffff
    15e8:	cc8080e7          	jalr	-824(ra) # 2ac <update_test>
    15ec:	00700093          	li	ra,7
    15f0:	00300113          	li	sp,3
    15f4:	0020bf33          	sltu	t5,ra,sp
    15f8:	00000e93          	li	t4,0
    15fc:	00500193          	li	gp,5
    1600:	01df0463          	beq	t5,t4,1608 <sltu_test+0x90>
    1604:	cb9fe06f          	j	2bc <fail>
    1608:	fffff097          	auipc	ra,0xfffff
    160c:	ca4080e7          	jalr	-860(ra) # 2ac <update_test>
    1610:	00000093          	li	ra,0
    1614:	ffff8137          	lui	sp,0xffff8
    1618:	0020bf33          	sltu	t5,ra,sp
    161c:	00100e93          	li	t4,1
    1620:	00600193          	li	gp,6
    1624:	01df0463          	beq	t5,t4,162c <sltu_test+0xb4>
    1628:	c95fe06f          	j	2bc <fail>
    162c:	fffff097          	auipc	ra,0xfffff
    1630:	c80080e7          	jalr	-896(ra) # 2ac <update_test>
    1634:	800000b7          	lui	ra,0x80000
    1638:	00000113          	li	sp,0
    163c:	0020bf33          	sltu	t5,ra,sp
    1640:	00000e93          	li	t4,0
    1644:	00700193          	li	gp,7
    1648:	01df0463          	beq	t5,t4,1650 <sltu_test+0xd8>
    164c:	c71fe06f          	j	2bc <fail>
    1650:	fffff097          	auipc	ra,0xfffff
    1654:	c5c080e7          	jalr	-932(ra) # 2ac <update_test>
    1658:	800000b7          	lui	ra,0x80000
    165c:	ffff8137          	lui	sp,0xffff8
    1660:	0020bf33          	sltu	t5,ra,sp
    1664:	00100e93          	li	t4,1
    1668:	00800193          	li	gp,8
    166c:	01df0463          	beq	t5,t4,1674 <sltu_test+0xfc>
    1670:	c4dfe06f          	j	2bc <fail>
    1674:	fffff097          	auipc	ra,0xfffff
    1678:	c38080e7          	jalr	-968(ra) # 2ac <update_test>
    167c:	00000093          	li	ra,0
    1680:	00008137          	lui	sp,0x8
    1684:	fff10113          	addi	sp,sp,-1 # 7fff <__global_pointer$+0x383f>
    1688:	0020bf33          	sltu	t5,ra,sp
    168c:	00100e93          	li	t4,1
    1690:	00900193          	li	gp,9
    1694:	01df0463          	beq	t5,t4,169c <sltu_test+0x124>
    1698:	c25fe06f          	j	2bc <fail>
    169c:	fffff097          	auipc	ra,0xfffff
    16a0:	c10080e7          	jalr	-1008(ra) # 2ac <update_test>
    16a4:	800000b7          	lui	ra,0x80000
    16a8:	fff08093          	addi	ra,ra,-1 # 7fffffff <SSEG+0x6ef3ffff>
    16ac:	00000113          	li	sp,0
    16b0:	0020bf33          	sltu	t5,ra,sp
    16b4:	00000e93          	li	t4,0
    16b8:	00a00193          	li	gp,10
    16bc:	01df0463          	beq	t5,t4,16c4 <sltu_test+0x14c>
    16c0:	bfdfe06f          	j	2bc <fail>
    16c4:	fffff097          	auipc	ra,0xfffff
    16c8:	be8080e7          	jalr	-1048(ra) # 2ac <update_test>
    16cc:	800000b7          	lui	ra,0x80000
    16d0:	fff08093          	addi	ra,ra,-1 # 7fffffff <SSEG+0x6ef3ffff>
    16d4:	00008137          	lui	sp,0x8
    16d8:	fff10113          	addi	sp,sp,-1 # 7fff <__global_pointer$+0x383f>
    16dc:	0020bf33          	sltu	t5,ra,sp
    16e0:	00000e93          	li	t4,0
    16e4:	00b00193          	li	gp,11
    16e8:	01df0463          	beq	t5,t4,16f0 <sltu_test+0x178>
    16ec:	bd1fe06f          	j	2bc <fail>
    16f0:	fffff097          	auipc	ra,0xfffff
    16f4:	bbc080e7          	jalr	-1092(ra) # 2ac <update_test>
    16f8:	800000b7          	lui	ra,0x80000
    16fc:	00008137          	lui	sp,0x8
    1700:	fff10113          	addi	sp,sp,-1 # 7fff <__global_pointer$+0x383f>
    1704:	0020bf33          	sltu	t5,ra,sp
    1708:	00000e93          	li	t4,0
    170c:	00c00193          	li	gp,12
    1710:	01df0463          	beq	t5,t4,1718 <sltu_test+0x1a0>
    1714:	ba9fe06f          	j	2bc <fail>
    1718:	fffff097          	auipc	ra,0xfffff
    171c:	b94080e7          	jalr	-1132(ra) # 2ac <update_test>
    1720:	800000b7          	lui	ra,0x80000
    1724:	fff08093          	addi	ra,ra,-1 # 7fffffff <SSEG+0x6ef3ffff>
    1728:	ffff8137          	lui	sp,0xffff8
    172c:	0020bf33          	sltu	t5,ra,sp
    1730:	00100e93          	li	t4,1
    1734:	00d00193          	li	gp,13
    1738:	01df0463          	beq	t5,t4,1740 <sltu_test+0x1c8>
    173c:	b81fe06f          	j	2bc <fail>
    1740:	fffff097          	auipc	ra,0xfffff
    1744:	b6c080e7          	jalr	-1172(ra) # 2ac <update_test>
    1748:	00000093          	li	ra,0
    174c:	fff00113          	li	sp,-1
    1750:	0020bf33          	sltu	t5,ra,sp
    1754:	00100e93          	li	t4,1
    1758:	00e00193          	li	gp,14
    175c:	01df0463          	beq	t5,t4,1764 <sltu_test+0x1ec>
    1760:	b5dfe06f          	j	2bc <fail>
    1764:	fffff097          	auipc	ra,0xfffff
    1768:	b48080e7          	jalr	-1208(ra) # 2ac <update_test>
    176c:	fff00093          	li	ra,-1
    1770:	00100113          	li	sp,1
    1774:	0020bf33          	sltu	t5,ra,sp
    1778:	00000e93          	li	t4,0
    177c:	00f00193          	li	gp,15
    1780:	01df0463          	beq	t5,t4,1788 <sltu_test+0x210>
    1784:	b39fe06f          	j	2bc <fail>
    1788:	fffff097          	auipc	ra,0xfffff
    178c:	b24080e7          	jalr	-1244(ra) # 2ac <update_test>
    1790:	fff00093          	li	ra,-1
    1794:	fff00113          	li	sp,-1
    1798:	0020bf33          	sltu	t5,ra,sp
    179c:	00000e93          	li	t4,0
    17a0:	01000193          	li	gp,16
    17a4:	01df0463          	beq	t5,t4,17ac <sltu_test+0x234>
    17a8:	b15fe06f          	j	2bc <fail>
    17ac:	fffff097          	auipc	ra,0xfffff
    17b0:	b00080e7          	jalr	-1280(ra) # 2ac <update_test>
    17b4:	00e00093          	li	ra,14
    17b8:	00d00113          	li	sp,13
    17bc:	0020b0b3          	sltu	ra,ra,sp
    17c0:	00000e93          	li	t4,0
    17c4:	01100193          	li	gp,17
    17c8:	01d08463          	beq	ra,t4,17d0 <sltu_test+0x258>
    17cc:	af1fe06f          	j	2bc <fail>
    17d0:	fffff097          	auipc	ra,0xfffff
    17d4:	adc080e7          	jalr	-1316(ra) # 2ac <update_test>
    17d8:	000f8067          	jr	t6

000017dc <addi_test>:
    17dc:	00000513          	li	a0,0
    17e0:	00a62023          	sw	a0,0(a2)
    17e4:	00000093          	li	ra,0
    17e8:	00008f13          	mv	t5,ra
    17ec:	00000e93          	li	t4,0
    17f0:	00200193          	li	gp,2
    17f4:	01df0463          	beq	t5,t4,17fc <addi_test+0x20>
    17f8:	ac5fe06f          	j	2bc <fail>
    17fc:	fffff097          	auipc	ra,0xfffff
    1800:	ab0080e7          	jalr	-1360(ra) # 2ac <update_test>
    1804:	00100093          	li	ra,1
    1808:	00108f13          	addi	t5,ra,1
    180c:	00200e93          	li	t4,2
    1810:	00300193          	li	gp,3
    1814:	01df0463          	beq	t5,t4,181c <addi_test+0x40>
    1818:	aa5fe06f          	j	2bc <fail>
    181c:	fffff097          	auipc	ra,0xfffff
    1820:	a90080e7          	jalr	-1392(ra) # 2ac <update_test>
    1824:	00300093          	li	ra,3
    1828:	00708f13          	addi	t5,ra,7
    182c:	00a00e93          	li	t4,10
    1830:	00400193          	li	gp,4
    1834:	01df0463          	beq	t5,t4,183c <addi_test+0x60>
    1838:	a85fe06f          	j	2bc <fail>
    183c:	fffff097          	auipc	ra,0xfffff
    1840:	a70080e7          	jalr	-1424(ra) # 2ac <update_test>
    1844:	00000093          	li	ra,0
    1848:	80008f13          	addi	t5,ra,-2048
    184c:	80000e93          	li	t4,-2048
    1850:	00500193          	li	gp,5
    1854:	01df0463          	beq	t5,t4,185c <addi_test+0x80>
    1858:	a65fe06f          	j	2bc <fail>
    185c:	fffff097          	auipc	ra,0xfffff
    1860:	a50080e7          	jalr	-1456(ra) # 2ac <update_test>
    1864:	800000b7          	lui	ra,0x80000
    1868:	00008f13          	mv	t5,ra
    186c:	80000eb7          	lui	t4,0x80000
    1870:	00600193          	li	gp,6
    1874:	01df0463          	beq	t5,t4,187c <addi_test+0xa0>
    1878:	a45fe06f          	j	2bc <fail>
    187c:	fffff097          	auipc	ra,0xfffff
    1880:	a30080e7          	jalr	-1488(ra) # 2ac <update_test>
    1884:	800000b7          	lui	ra,0x80000
    1888:	80008f13          	addi	t5,ra,-2048 # 7ffff800 <SSEG+0x6ef3f800>
    188c:	80000eb7          	lui	t4,0x80000
    1890:	800e8e93          	addi	t4,t4,-2048 # 7ffff800 <SSEG+0x6ef3f800>
    1894:	00700193          	li	gp,7
    1898:	01df0463          	beq	t5,t4,18a0 <addi_test+0xc4>
    189c:	a21fe06f          	j	2bc <fail>
    18a0:	fffff097          	auipc	ra,0xfffff
    18a4:	a0c080e7          	jalr	-1524(ra) # 2ac <update_test>
    18a8:	00000093          	li	ra,0
    18ac:	7ff08f13          	addi	t5,ra,2047
    18b0:	7ff00e93          	li	t4,2047
    18b4:	00800193          	li	gp,8
    18b8:	01df0463          	beq	t5,t4,18c0 <addi_test+0xe4>
    18bc:	a01fe06f          	j	2bc <fail>
    18c0:	fffff097          	auipc	ra,0xfffff
    18c4:	9ec080e7          	jalr	-1556(ra) # 2ac <update_test>
    18c8:	800000b7          	lui	ra,0x80000
    18cc:	fff08093          	addi	ra,ra,-1 # 7fffffff <SSEG+0x6ef3ffff>
    18d0:	00008f13          	mv	t5,ra
    18d4:	80000eb7          	lui	t4,0x80000
    18d8:	fffe8e93          	addi	t4,t4,-1 # 7fffffff <SSEG+0x6ef3ffff>
    18dc:	00900193          	li	gp,9
    18e0:	01df0463          	beq	t5,t4,18e8 <addi_test+0x10c>
    18e4:	9d9fe06f          	j	2bc <fail>
    18e8:	fffff097          	auipc	ra,0xfffff
    18ec:	9c4080e7          	jalr	-1596(ra) # 2ac <update_test>
    18f0:	800000b7          	lui	ra,0x80000
    18f4:	fff08093          	addi	ra,ra,-1 # 7fffffff <SSEG+0x6ef3ffff>
    18f8:	7ff08f13          	addi	t5,ra,2047
    18fc:	80000eb7          	lui	t4,0x80000
    1900:	7fee8e93          	addi	t4,t4,2046 # 800007fe <SSEG+0x6ef407fe>
    1904:	00a00193          	li	gp,10
    1908:	01df0463          	beq	t5,t4,1910 <addi_test+0x134>
    190c:	9b1fe06f          	j	2bc <fail>
    1910:	fffff097          	auipc	ra,0xfffff
    1914:	99c080e7          	jalr	-1636(ra) # 2ac <update_test>
    1918:	800000b7          	lui	ra,0x80000
    191c:	7ff08f13          	addi	t5,ra,2047 # 800007ff <SSEG+0x6ef407ff>
    1920:	80000eb7          	lui	t4,0x80000
    1924:	7ffe8e93          	addi	t4,t4,2047 # 800007ff <SSEG+0x6ef407ff>
    1928:	00b00193          	li	gp,11
    192c:	01df0463          	beq	t5,t4,1934 <addi_test+0x158>
    1930:	98dfe06f          	j	2bc <fail>
    1934:	fffff097          	auipc	ra,0xfffff
    1938:	978080e7          	jalr	-1672(ra) # 2ac <update_test>
    193c:	800000b7          	lui	ra,0x80000
    1940:	fff08093          	addi	ra,ra,-1 # 7fffffff <SSEG+0x6ef3ffff>
    1944:	80008f13          	addi	t5,ra,-2048
    1948:	7ffffeb7          	lui	t4,0x7ffff
    194c:	7ffe8e93          	addi	t4,t4,2047 # 7ffff7ff <SSEG+0x6ef3f7ff>
    1950:	00c00193          	li	gp,12
    1954:	01df0463          	beq	t5,t4,195c <addi_test+0x180>
    1958:	965fe06f          	j	2bc <fail>
    195c:	fffff097          	auipc	ra,0xfffff
    1960:	950080e7          	jalr	-1712(ra) # 2ac <update_test>
    1964:	00000093          	li	ra,0
    1968:	fff08f13          	addi	t5,ra,-1
    196c:	fff00e93          	li	t4,-1
    1970:	00d00193          	li	gp,13
    1974:	01df0463          	beq	t5,t4,197c <addi_test+0x1a0>
    1978:	945fe06f          	j	2bc <fail>
    197c:	fffff097          	auipc	ra,0xfffff
    1980:	930080e7          	jalr	-1744(ra) # 2ac <update_test>
    1984:	fff00093          	li	ra,-1
    1988:	00108f13          	addi	t5,ra,1
    198c:	00000e93          	li	t4,0
    1990:	00e00193          	li	gp,14
    1994:	01df0463          	beq	t5,t4,199c <addi_test+0x1c0>
    1998:	925fe06f          	j	2bc <fail>
    199c:	fffff097          	auipc	ra,0xfffff
    19a0:	910080e7          	jalr	-1776(ra) # 2ac <update_test>
    19a4:	fff00093          	li	ra,-1
    19a8:	fff08f13          	addi	t5,ra,-1
    19ac:	ffe00e93          	li	t4,-2
    19b0:	00f00193          	li	gp,15
    19b4:	01df0463          	beq	t5,t4,19bc <addi_test+0x1e0>
    19b8:	905fe06f          	j	2bc <fail>
    19bc:	fffff097          	auipc	ra,0xfffff
    19c0:	8f0080e7          	jalr	-1808(ra) # 2ac <update_test>
    19c4:	800000b7          	lui	ra,0x80000
    19c8:	fff08093          	addi	ra,ra,-1 # 7fffffff <SSEG+0x6ef3ffff>
    19cc:	00108f13          	addi	t5,ra,1
    19d0:	80000eb7          	lui	t4,0x80000
    19d4:	01000193          	li	gp,16
    19d8:	01df0463          	beq	t5,t4,19e0 <addi_test+0x204>
    19dc:	8e1fe06f          	j	2bc <fail>
    19e0:	fffff097          	auipc	ra,0xfffff
    19e4:	8cc080e7          	jalr	-1844(ra) # 2ac <update_test>
    19e8:	00d00093          	li	ra,13
    19ec:	00b08093          	addi	ra,ra,11
    19f0:	01800e93          	li	t4,24
    19f4:	01100193          	li	gp,17
    19f8:	01d08463          	beq	ra,t4,1a00 <addi_test+0x224>
    19fc:	8c1fe06f          	j	2bc <fail>
    1a00:	fffff097          	auipc	ra,0xfffff
    1a04:	8ac080e7          	jalr	-1876(ra) # 2ac <update_test>
    1a08:	000f8067          	jr	t6

00001a0c <andi_test>:
    1a0c:	00000513          	li	a0,0
    1a10:	00a62023          	sw	a0,0(a2)
    1a14:	ff0100b7          	lui	ra,0xff010
    1a18:	f0008093          	addi	ra,ra,-256 # ff00ff00 <SSEG+0xedf4ff00>
    1a1c:	f0f0ff13          	andi	t5,ra,-241
    1a20:	ff010eb7          	lui	t4,0xff010
    1a24:	f00e8e93          	addi	t4,t4,-256 # ff00ff00 <SSEG+0xedf4ff00>
    1a28:	00200193          	li	gp,2
    1a2c:	01df0463          	beq	t5,t4,1a34 <andi_test+0x28>
    1a30:	88dfe06f          	j	2bc <fail>
    1a34:	fffff097          	auipc	ra,0xfffff
    1a38:	878080e7          	jalr	-1928(ra) # 2ac <update_test>
    1a3c:	0ff010b7          	lui	ra,0xff01
    1a40:	ff008093          	addi	ra,ra,-16 # ff00ff0 <__sp+0xfef0ff0>
    1a44:	0f00ff13          	andi	t5,ra,240
    1a48:	0f000e93          	li	t4,240
    1a4c:	00300193          	li	gp,3
    1a50:	01df0463          	beq	t5,t4,1a58 <andi_test+0x4c>
    1a54:	869fe06f          	j	2bc <fail>
    1a58:	fffff097          	auipc	ra,0xfffff
    1a5c:	854080e7          	jalr	-1964(ra) # 2ac <update_test>
    1a60:	00ff00b7          	lui	ra,0xff0
    1a64:	0ff08093          	addi	ra,ra,255 # ff00ff <__sp+0xfe00ff>
    1a68:	70f0ff13          	andi	t5,ra,1807
    1a6c:	00f00e93          	li	t4,15
    1a70:	00400193          	li	gp,4
    1a74:	01df0463          	beq	t5,t4,1a7c <andi_test+0x70>
    1a78:	845fe06f          	j	2bc <fail>
    1a7c:	fffff097          	auipc	ra,0xfffff
    1a80:	830080e7          	jalr	-2000(ra) # 2ac <update_test>
    1a84:	f00ff0b7          	lui	ra,0xf00ff
    1a88:	00f08093          	addi	ra,ra,15 # f00ff00f <SSEG+0xdf03f00f>
    1a8c:	0f00ff13          	andi	t5,ra,240
    1a90:	00000e93          	li	t4,0
    1a94:	00500193          	li	gp,5
    1a98:	01df0463          	beq	t5,t4,1aa0 <andi_test+0x94>
    1a9c:	821fe06f          	j	2bc <fail>
    1aa0:	fffff097          	auipc	ra,0xfffff
    1aa4:	80c080e7          	jalr	-2036(ra) # 2ac <update_test>
    1aa8:	ff0100b7          	lui	ra,0xff010
    1aac:	f0008093          	addi	ra,ra,-256 # ff00ff00 <SSEG+0xedf4ff00>
    1ab0:	0f00f093          	andi	ra,ra,240
    1ab4:	00000e93          	li	t4,0
    1ab8:	00600193          	li	gp,6
    1abc:	01d08463          	beq	ra,t4,1ac4 <andi_test+0xb8>
    1ac0:	ffcfe06f          	j	2bc <fail>
    1ac4:	ffffe097          	auipc	ra,0xffffe
    1ac8:	7e8080e7          	jalr	2024(ra) # 2ac <update_test>
    1acc:	000f8067          	jr	t6

00001ad0 <ori_test>:
    1ad0:	00000513          	li	a0,0
    1ad4:	00a62023          	sw	a0,0(a2)
    1ad8:	ff0100b7          	lui	ra,0xff010
    1adc:	f0008093          	addi	ra,ra,-256 # ff00ff00 <SSEG+0xedf4ff00>
    1ae0:	f0f0ef13          	ori	t5,ra,-241
    1ae4:	f0f00e93          	li	t4,-241
    1ae8:	00200193          	li	gp,2
    1aec:	01df0463          	beq	t5,t4,1af4 <ori_test+0x24>
    1af0:	fccfe06f          	j	2bc <fail>
    1af4:	ffffe097          	auipc	ra,0xffffe
    1af8:	7b8080e7          	jalr	1976(ra) # 2ac <update_test>
    1afc:	0ff010b7          	lui	ra,0xff01
    1b00:	ff008093          	addi	ra,ra,-16 # ff00ff0 <__sp+0xfef0ff0>
    1b04:	0f00ef13          	ori	t5,ra,240
    1b08:	0ff01eb7          	lui	t4,0xff01
    1b0c:	ff0e8e93          	addi	t4,t4,-16 # ff00ff0 <__sp+0xfef0ff0>
    1b10:	00300193          	li	gp,3
    1b14:	01df0463          	beq	t5,t4,1b1c <ori_test+0x4c>
    1b18:	fa4fe06f          	j	2bc <fail>
    1b1c:	ffffe097          	auipc	ra,0xffffe
    1b20:	790080e7          	jalr	1936(ra) # 2ac <update_test>
    1b24:	00ff00b7          	lui	ra,0xff0
    1b28:	0ff08093          	addi	ra,ra,255 # ff00ff <__sp+0xfe00ff>
    1b2c:	70f0ef13          	ori	t5,ra,1807
    1b30:	00ff0eb7          	lui	t4,0xff0
    1b34:	7ffe8e93          	addi	t4,t4,2047 # ff07ff <__sp+0xfe07ff>
    1b38:	00400193          	li	gp,4
    1b3c:	01df0463          	beq	t5,t4,1b44 <ori_test+0x74>
    1b40:	f7cfe06f          	j	2bc <fail>
    1b44:	ffffe097          	auipc	ra,0xffffe
    1b48:	768080e7          	jalr	1896(ra) # 2ac <update_test>
    1b4c:	f00ff0b7          	lui	ra,0xf00ff
    1b50:	00f08093          	addi	ra,ra,15 # f00ff00f <SSEG+0xdf03f00f>
    1b54:	0f00ef13          	ori	t5,ra,240
    1b58:	f00ffeb7          	lui	t4,0xf00ff
    1b5c:	0ffe8e93          	addi	t4,t4,255 # f00ff0ff <SSEG+0xdf03f0ff>
    1b60:	00500193          	li	gp,5
    1b64:	01df0463          	beq	t5,t4,1b6c <ori_test+0x9c>
    1b68:	f54fe06f          	j	2bc <fail>
    1b6c:	ffffe097          	auipc	ra,0xffffe
    1b70:	740080e7          	jalr	1856(ra) # 2ac <update_test>
    1b74:	ff0100b7          	lui	ra,0xff010
    1b78:	f0008093          	addi	ra,ra,-256 # ff00ff00 <SSEG+0xedf4ff00>
    1b7c:	0f00e093          	ori	ra,ra,240
    1b80:	ff010eb7          	lui	t4,0xff010
    1b84:	ff0e8e93          	addi	t4,t4,-16 # ff00fff0 <SSEG+0xedf4fff0>
    1b88:	00600193          	li	gp,6
    1b8c:	01d08463          	beq	ra,t4,1b94 <ori_test+0xc4>
    1b90:	f2cfe06f          	j	2bc <fail>
    1b94:	ffffe097          	auipc	ra,0xffffe
    1b98:	718080e7          	jalr	1816(ra) # 2ac <update_test>
    1b9c:	000f8067          	jr	t6

00001ba0 <xori_test>:
    1ba0:	00000513          	li	a0,0
    1ba4:	00a62023          	sw	a0,0(a2)
    1ba8:	00ff10b7          	lui	ra,0xff1
    1bac:	f0008093          	addi	ra,ra,-256 # ff0f00 <__sp+0xfe0f00>
    1bb0:	f0f0cf13          	xori	t5,ra,-241
    1bb4:	ff00feb7          	lui	t4,0xff00f
    1bb8:	00fe8e93          	addi	t4,t4,15 # ff00f00f <SSEG+0xedf4f00f>
    1bbc:	00200193          	li	gp,2
    1bc0:	01df0463          	beq	t5,t4,1bc8 <xori_test+0x28>
    1bc4:	ef8fe06f          	j	2bc <fail>
    1bc8:	ffffe097          	auipc	ra,0xffffe
    1bcc:	6e4080e7          	jalr	1764(ra) # 2ac <update_test>
    1bd0:	0ff010b7          	lui	ra,0xff01
    1bd4:	ff008093          	addi	ra,ra,-16 # ff00ff0 <__sp+0xfef0ff0>
    1bd8:	0f00cf13          	xori	t5,ra,240
    1bdc:	0ff01eb7          	lui	t4,0xff01
    1be0:	f00e8e93          	addi	t4,t4,-256 # ff00f00 <__sp+0xfef0f00>
    1be4:	00300193          	li	gp,3
    1be8:	01df0463          	beq	t5,t4,1bf0 <xori_test+0x50>
    1bec:	ed0fe06f          	j	2bc <fail>
    1bf0:	ffffe097          	auipc	ra,0xffffe
    1bf4:	6bc080e7          	jalr	1724(ra) # 2ac <update_test>
    1bf8:	00ff10b7          	lui	ra,0xff1
    1bfc:	8ff08093          	addi	ra,ra,-1793 # ff08ff <__sp+0xfe08ff>
    1c00:	70f0cf13          	xori	t5,ra,1807
    1c04:	00ff1eb7          	lui	t4,0xff1
    1c08:	ff0e8e93          	addi	t4,t4,-16 # ff0ff0 <__sp+0xfe0ff0>
    1c0c:	00400193          	li	gp,4
    1c10:	01df0463          	beq	t5,t4,1c18 <xori_test+0x78>
    1c14:	ea8fe06f          	j	2bc <fail>
    1c18:	ffffe097          	auipc	ra,0xffffe
    1c1c:	694080e7          	jalr	1684(ra) # 2ac <update_test>
    1c20:	f00ff0b7          	lui	ra,0xf00ff
    1c24:	00f08093          	addi	ra,ra,15 # f00ff00f <SSEG+0xdf03f00f>
    1c28:	0f00cf13          	xori	t5,ra,240
    1c2c:	f00ffeb7          	lui	t4,0xf00ff
    1c30:	0ffe8e93          	addi	t4,t4,255 # f00ff0ff <SSEG+0xdf03f0ff>
    1c34:	00500193          	li	gp,5
    1c38:	01df0463          	beq	t5,t4,1c40 <xori_test+0xa0>
    1c3c:	e80fe06f          	j	2bc <fail>
    1c40:	ffffe097          	auipc	ra,0xffffe
    1c44:	66c080e7          	jalr	1644(ra) # 2ac <update_test>
    1c48:	ff00f0b7          	lui	ra,0xff00f
    1c4c:	70008093          	addi	ra,ra,1792 # ff00f700 <SSEG+0xedf4f700>
    1c50:	70f0c093          	xori	ra,ra,1807
    1c54:	ff00feb7          	lui	t4,0xff00f
    1c58:	00fe8e93          	addi	t4,t4,15 # ff00f00f <SSEG+0xedf4f00f>
    1c5c:	00600193          	li	gp,6
    1c60:	01d08463          	beq	ra,t4,1c68 <xori_test+0xc8>
    1c64:	e58fe06f          	j	2bc <fail>
    1c68:	ffffe097          	auipc	ra,0xffffe
    1c6c:	644080e7          	jalr	1604(ra) # 2ac <update_test>
    1c70:	000f8067          	jr	t6

00001c74 <slli_test>:
    1c74:	00000513          	li	a0,0
    1c78:	00a62023          	sw	a0,0(a2)
    1c7c:	00100093          	li	ra,1
    1c80:	00009f13          	slli	t5,ra,0x0
    1c84:	00100e93          	li	t4,1
    1c88:	00200193          	li	gp,2
    1c8c:	01df0463          	beq	t5,t4,1c94 <slli_test+0x20>
    1c90:	e2cfe06f          	j	2bc <fail>
    1c94:	ffffe097          	auipc	ra,0xffffe
    1c98:	618080e7          	jalr	1560(ra) # 2ac <update_test>
    1c9c:	00100093          	li	ra,1
    1ca0:	00109f13          	slli	t5,ra,0x1
    1ca4:	00200e93          	li	t4,2
    1ca8:	00300193          	li	gp,3
    1cac:	01df0463          	beq	t5,t4,1cb4 <slli_test+0x40>
    1cb0:	e0cfe06f          	j	2bc <fail>
    1cb4:	ffffe097          	auipc	ra,0xffffe
    1cb8:	5f8080e7          	jalr	1528(ra) # 2ac <update_test>
    1cbc:	00100093          	li	ra,1
    1cc0:	00709f13          	slli	t5,ra,0x7
    1cc4:	08000e93          	li	t4,128
    1cc8:	00400193          	li	gp,4
    1ccc:	01df0463          	beq	t5,t4,1cd4 <slli_test+0x60>
    1cd0:	decfe06f          	j	2bc <fail>
    1cd4:	ffffe097          	auipc	ra,0xffffe
    1cd8:	5d8080e7          	jalr	1496(ra) # 2ac <update_test>
    1cdc:	00100093          	li	ra,1
    1ce0:	00e09f13          	slli	t5,ra,0xe
    1ce4:	00004eb7          	lui	t4,0x4
    1ce8:	00500193          	li	gp,5
    1cec:	01df0463          	beq	t5,t4,1cf4 <slli_test+0x80>
    1cf0:	dccfe06f          	j	2bc <fail>
    1cf4:	ffffe097          	auipc	ra,0xffffe
    1cf8:	5b8080e7          	jalr	1464(ra) # 2ac <update_test>
    1cfc:	00100093          	li	ra,1
    1d00:	01f09f13          	slli	t5,ra,0x1f
    1d04:	80000eb7          	lui	t4,0x80000
    1d08:	00600193          	li	gp,6
    1d0c:	01df0463          	beq	t5,t4,1d14 <slli_test+0xa0>
    1d10:	dacfe06f          	j	2bc <fail>
    1d14:	ffffe097          	auipc	ra,0xffffe
    1d18:	598080e7          	jalr	1432(ra) # 2ac <update_test>
    1d1c:	fff00093          	li	ra,-1
    1d20:	00009f13          	slli	t5,ra,0x0
    1d24:	fff00e93          	li	t4,-1
    1d28:	00700193          	li	gp,7
    1d2c:	01df0463          	beq	t5,t4,1d34 <slli_test+0xc0>
    1d30:	d8cfe06f          	j	2bc <fail>
    1d34:	ffffe097          	auipc	ra,0xffffe
    1d38:	578080e7          	jalr	1400(ra) # 2ac <update_test>
    1d3c:	fff00093          	li	ra,-1
    1d40:	00109f13          	slli	t5,ra,0x1
    1d44:	ffe00e93          	li	t4,-2
    1d48:	00800193          	li	gp,8
    1d4c:	01df0463          	beq	t5,t4,1d54 <slli_test+0xe0>
    1d50:	d6cfe06f          	j	2bc <fail>
    1d54:	ffffe097          	auipc	ra,0xffffe
    1d58:	558080e7          	jalr	1368(ra) # 2ac <update_test>
    1d5c:	fff00093          	li	ra,-1
    1d60:	00709f13          	slli	t5,ra,0x7
    1d64:	f8000e93          	li	t4,-128
    1d68:	00900193          	li	gp,9
    1d6c:	01df0463          	beq	t5,t4,1d74 <slli_test+0x100>
    1d70:	d4cfe06f          	j	2bc <fail>
    1d74:	ffffe097          	auipc	ra,0xffffe
    1d78:	538080e7          	jalr	1336(ra) # 2ac <update_test>
    1d7c:	fff00093          	li	ra,-1
    1d80:	00e09f13          	slli	t5,ra,0xe
    1d84:	ffffceb7          	lui	t4,0xffffc
    1d88:	00a00193          	li	gp,10
    1d8c:	01df0463          	beq	t5,t4,1d94 <slli_test+0x120>
    1d90:	d2cfe06f          	j	2bc <fail>
    1d94:	ffffe097          	auipc	ra,0xffffe
    1d98:	518080e7          	jalr	1304(ra) # 2ac <update_test>
    1d9c:	fff00093          	li	ra,-1
    1da0:	01f09f13          	slli	t5,ra,0x1f
    1da4:	80000eb7          	lui	t4,0x80000
    1da8:	00b00193          	li	gp,11
    1dac:	01df0463          	beq	t5,t4,1db4 <slli_test+0x140>
    1db0:	d0cfe06f          	j	2bc <fail>
    1db4:	ffffe097          	auipc	ra,0xffffe
    1db8:	4f8080e7          	jalr	1272(ra) # 2ac <update_test>
    1dbc:	212120b7          	lui	ra,0x21212
    1dc0:	12108093          	addi	ra,ra,289 # 21212121 <SSEG+0x10152121>
    1dc4:	00009f13          	slli	t5,ra,0x0
    1dc8:	21212eb7          	lui	t4,0x21212
    1dcc:	121e8e93          	addi	t4,t4,289 # 21212121 <SSEG+0x10152121>
    1dd0:	00c00193          	li	gp,12
    1dd4:	01df0463          	beq	t5,t4,1ddc <slli_test+0x168>
    1dd8:	ce4fe06f          	j	2bc <fail>
    1ddc:	ffffe097          	auipc	ra,0xffffe
    1de0:	4d0080e7          	jalr	1232(ra) # 2ac <update_test>
    1de4:	212120b7          	lui	ra,0x21212
    1de8:	12108093          	addi	ra,ra,289 # 21212121 <SSEG+0x10152121>
    1dec:	00109f13          	slli	t5,ra,0x1
    1df0:	42424eb7          	lui	t4,0x42424
    1df4:	242e8e93          	addi	t4,t4,578 # 42424242 <SSEG+0x31364242>
    1df8:	00d00193          	li	gp,13
    1dfc:	01df0463          	beq	t5,t4,1e04 <slli_test+0x190>
    1e00:	cbcfe06f          	j	2bc <fail>
    1e04:	ffffe097          	auipc	ra,0xffffe
    1e08:	4a8080e7          	jalr	1192(ra) # 2ac <update_test>
    1e0c:	212120b7          	lui	ra,0x21212
    1e10:	12108093          	addi	ra,ra,289 # 21212121 <SSEG+0x10152121>
    1e14:	00709f13          	slli	t5,ra,0x7
    1e18:	90909eb7          	lui	t4,0x90909
    1e1c:	080e8e93          	addi	t4,t4,128 # 90909080 <SSEG+0x7f849080>
    1e20:	00e00193          	li	gp,14
    1e24:	01df0463          	beq	t5,t4,1e2c <slli_test+0x1b8>
    1e28:	c94fe06f          	j	2bc <fail>
    1e2c:	ffffe097          	auipc	ra,0xffffe
    1e30:	480080e7          	jalr	1152(ra) # 2ac <update_test>
    1e34:	212120b7          	lui	ra,0x21212
    1e38:	12108093          	addi	ra,ra,289 # 21212121 <SSEG+0x10152121>
    1e3c:	00e09f13          	slli	t5,ra,0xe
    1e40:	48484eb7          	lui	t4,0x48484
    1e44:	00f00193          	li	gp,15
    1e48:	01df0463          	beq	t5,t4,1e50 <slli_test+0x1dc>
    1e4c:	c70fe06f          	j	2bc <fail>
    1e50:	ffffe097          	auipc	ra,0xffffe
    1e54:	45c080e7          	jalr	1116(ra) # 2ac <update_test>
    1e58:	212120b7          	lui	ra,0x21212
    1e5c:	12108093          	addi	ra,ra,289 # 21212121 <SSEG+0x10152121>
    1e60:	01f09f13          	slli	t5,ra,0x1f
    1e64:	80000eb7          	lui	t4,0x80000
    1e68:	01000193          	li	gp,16
    1e6c:	01df0463          	beq	t5,t4,1e74 <slli_test+0x200>
    1e70:	c4cfe06f          	j	2bc <fail>
    1e74:	ffffe097          	auipc	ra,0xffffe
    1e78:	438080e7          	jalr	1080(ra) # 2ac <update_test>
    1e7c:	000f8067          	jr	t6

00001e80 <srli_test>:
    1e80:	00000513          	li	a0,0
    1e84:	00a62023          	sw	a0,0(a2)
    1e88:	800000b7          	lui	ra,0x80000
    1e8c:	0000df13          	srli	t5,ra,0x0
    1e90:	80000eb7          	lui	t4,0x80000
    1e94:	00200193          	li	gp,2
    1e98:	01df0463          	beq	t5,t4,1ea0 <srli_test+0x20>
    1e9c:	c20fe06f          	j	2bc <fail>
    1ea0:	ffffe097          	auipc	ra,0xffffe
    1ea4:	40c080e7          	jalr	1036(ra) # 2ac <update_test>
    1ea8:	800000b7          	lui	ra,0x80000
    1eac:	0010df13          	srli	t5,ra,0x1
    1eb0:	40000eb7          	lui	t4,0x40000
    1eb4:	00300193          	li	gp,3
    1eb8:	01df0463          	beq	t5,t4,1ec0 <srli_test+0x40>
    1ebc:	c00fe06f          	j	2bc <fail>
    1ec0:	ffffe097          	auipc	ra,0xffffe
    1ec4:	3ec080e7          	jalr	1004(ra) # 2ac <update_test>
    1ec8:	800000b7          	lui	ra,0x80000
    1ecc:	0070df13          	srli	t5,ra,0x7
    1ed0:	01000eb7          	lui	t4,0x1000
    1ed4:	00400193          	li	gp,4
    1ed8:	01df0463          	beq	t5,t4,1ee0 <srli_test+0x60>
    1edc:	be0fe06f          	j	2bc <fail>
    1ee0:	ffffe097          	auipc	ra,0xffffe
    1ee4:	3cc080e7          	jalr	972(ra) # 2ac <update_test>
    1ee8:	800000b7          	lui	ra,0x80000
    1eec:	00e0df13          	srli	t5,ra,0xe
    1ef0:	00020eb7          	lui	t4,0x20
    1ef4:	00500193          	li	gp,5
    1ef8:	01df0463          	beq	t5,t4,1f00 <srli_test+0x80>
    1efc:	bc0fe06f          	j	2bc <fail>
    1f00:	ffffe097          	auipc	ra,0xffffe
    1f04:	3ac080e7          	jalr	940(ra) # 2ac <update_test>
    1f08:	800000b7          	lui	ra,0x80000
    1f0c:	00108093          	addi	ra,ra,1 # 80000001 <SSEG+0x6ef40001>
    1f10:	01f0df13          	srli	t5,ra,0x1f
    1f14:	00100e93          	li	t4,1
    1f18:	00600193          	li	gp,6
    1f1c:	01df0463          	beq	t5,t4,1f24 <srli_test+0xa4>
    1f20:	b9cfe06f          	j	2bc <fail>
    1f24:	ffffe097          	auipc	ra,0xffffe
    1f28:	388080e7          	jalr	904(ra) # 2ac <update_test>
    1f2c:	fff00093          	li	ra,-1
    1f30:	0000df13          	srli	t5,ra,0x0
    1f34:	fff00e93          	li	t4,-1
    1f38:	00700193          	li	gp,7
    1f3c:	01df0463          	beq	t5,t4,1f44 <srli_test+0xc4>
    1f40:	b7cfe06f          	j	2bc <fail>
    1f44:	ffffe097          	auipc	ra,0xffffe
    1f48:	368080e7          	jalr	872(ra) # 2ac <update_test>
    1f4c:	fff00093          	li	ra,-1
    1f50:	0010df13          	srli	t5,ra,0x1
    1f54:	80000eb7          	lui	t4,0x80000
    1f58:	fffe8e93          	addi	t4,t4,-1 # 7fffffff <SSEG+0x6ef3ffff>
    1f5c:	00800193          	li	gp,8
    1f60:	01df0463          	beq	t5,t4,1f68 <srli_test+0xe8>
    1f64:	b58fe06f          	j	2bc <fail>
    1f68:	ffffe097          	auipc	ra,0xffffe
    1f6c:	344080e7          	jalr	836(ra) # 2ac <update_test>
    1f70:	fff00093          	li	ra,-1
    1f74:	0070df13          	srli	t5,ra,0x7
    1f78:	02000eb7          	lui	t4,0x2000
    1f7c:	fffe8e93          	addi	t4,t4,-1 # 1ffffff <__sp+0x1feffff>
    1f80:	00900193          	li	gp,9
    1f84:	01df0463          	beq	t5,t4,1f8c <srli_test+0x10c>
    1f88:	b34fe06f          	j	2bc <fail>
    1f8c:	ffffe097          	auipc	ra,0xffffe
    1f90:	320080e7          	jalr	800(ra) # 2ac <update_test>
    1f94:	fff00093          	li	ra,-1
    1f98:	00e0df13          	srli	t5,ra,0xe
    1f9c:	00040eb7          	lui	t4,0x40
    1fa0:	fffe8e93          	addi	t4,t4,-1 # 3ffff <__sp+0x2ffff>
    1fa4:	00a00193          	li	gp,10
    1fa8:	01df0463          	beq	t5,t4,1fb0 <srli_test+0x130>
    1fac:	b10fe06f          	j	2bc <fail>
    1fb0:	ffffe097          	auipc	ra,0xffffe
    1fb4:	2fc080e7          	jalr	764(ra) # 2ac <update_test>
    1fb8:	fff00093          	li	ra,-1
    1fbc:	01f0df13          	srli	t5,ra,0x1f
    1fc0:	00100e93          	li	t4,1
    1fc4:	00b00193          	li	gp,11
    1fc8:	01df0463          	beq	t5,t4,1fd0 <srli_test+0x150>
    1fcc:	af0fe06f          	j	2bc <fail>
    1fd0:	ffffe097          	auipc	ra,0xffffe
    1fd4:	2dc080e7          	jalr	732(ra) # 2ac <update_test>
    1fd8:	212120b7          	lui	ra,0x21212
    1fdc:	12108093          	addi	ra,ra,289 # 21212121 <SSEG+0x10152121>
    1fe0:	0000df13          	srli	t5,ra,0x0
    1fe4:	21212eb7          	lui	t4,0x21212
    1fe8:	121e8e93          	addi	t4,t4,289 # 21212121 <SSEG+0x10152121>
    1fec:	00c00193          	li	gp,12
    1ff0:	01df0463          	beq	t5,t4,1ff8 <srli_test+0x178>
    1ff4:	ac8fe06f          	j	2bc <fail>
    1ff8:	ffffe097          	auipc	ra,0xffffe
    1ffc:	2b4080e7          	jalr	692(ra) # 2ac <update_test>
    2000:	212120b7          	lui	ra,0x21212
    2004:	12108093          	addi	ra,ra,289 # 21212121 <SSEG+0x10152121>
    2008:	0010df13          	srli	t5,ra,0x1
    200c:	10909eb7          	lui	t4,0x10909
    2010:	090e8e93          	addi	t4,t4,144 # 10909090 <__sp+0x108f9090>
    2014:	00d00193          	li	gp,13
    2018:	01df0463          	beq	t5,t4,2020 <srli_test+0x1a0>
    201c:	aa0fe06f          	j	2bc <fail>
    2020:	ffffe097          	auipc	ra,0xffffe
    2024:	28c080e7          	jalr	652(ra) # 2ac <update_test>
    2028:	212120b7          	lui	ra,0x21212
    202c:	12108093          	addi	ra,ra,289 # 21212121 <SSEG+0x10152121>
    2030:	0070df13          	srli	t5,ra,0x7
    2034:	00424eb7          	lui	t4,0x424
    2038:	242e8e93          	addi	t4,t4,578 # 424242 <__sp+0x414242>
    203c:	00e00193          	li	gp,14
    2040:	01df0463          	beq	t5,t4,2048 <srli_test+0x1c8>
    2044:	a78fe06f          	j	2bc <fail>
    2048:	ffffe097          	auipc	ra,0xffffe
    204c:	264080e7          	jalr	612(ra) # 2ac <update_test>
    2050:	212120b7          	lui	ra,0x21212
    2054:	12108093          	addi	ra,ra,289 # 21212121 <SSEG+0x10152121>
    2058:	00e0df13          	srli	t5,ra,0xe
    205c:	00008eb7          	lui	t4,0x8
    2060:	484e8e93          	addi	t4,t4,1156 # 8484 <__global_pointer$+0x3cc4>
    2064:	00f00193          	li	gp,15
    2068:	01df0463          	beq	t5,t4,2070 <srli_test+0x1f0>
    206c:	a50fe06f          	j	2bc <fail>
    2070:	ffffe097          	auipc	ra,0xffffe
    2074:	23c080e7          	jalr	572(ra) # 2ac <update_test>
    2078:	212120b7          	lui	ra,0x21212
    207c:	12108093          	addi	ra,ra,289 # 21212121 <SSEG+0x10152121>
    2080:	01f0df13          	srli	t5,ra,0x1f
    2084:	00000e93          	li	t4,0
    2088:	01000193          	li	gp,16
    208c:	01df0463          	beq	t5,t4,2094 <srli_test+0x214>
    2090:	a2cfe06f          	j	2bc <fail>
    2094:	ffffe097          	auipc	ra,0xffffe
    2098:	218080e7          	jalr	536(ra) # 2ac <update_test>
    209c:	800000b7          	lui	ra,0x80000
    20a0:	0070d093          	srli	ra,ra,0x7
    20a4:	01000eb7          	lui	t4,0x1000
    20a8:	01100193          	li	gp,17
    20ac:	01d08463          	beq	ra,t4,20b4 <srli_test+0x234>
    20b0:	a0cfe06f          	j	2bc <fail>
    20b4:	ffffe097          	auipc	ra,0xffffe
    20b8:	1f8080e7          	jalr	504(ra) # 2ac <update_test>
    20bc:	000f8067          	jr	t6

000020c0 <srai_test>:
    20c0:	00000513          	li	a0,0
    20c4:	00a62023          	sw	a0,0(a2)
    20c8:	00000093          	li	ra,0
    20cc:	4000df13          	srai	t5,ra,0x0
    20d0:	00000e93          	li	t4,0
    20d4:	00200193          	li	gp,2
    20d8:	01df0463          	beq	t5,t4,20e0 <srai_test+0x20>
    20dc:	9e0fe06f          	j	2bc <fail>
    20e0:	ffffe097          	auipc	ra,0xffffe
    20e4:	1cc080e7          	jalr	460(ra) # 2ac <update_test>
    20e8:	800000b7          	lui	ra,0x80000
    20ec:	4010df13          	srai	t5,ra,0x1
    20f0:	c0000eb7          	lui	t4,0xc0000
    20f4:	00300193          	li	gp,3
    20f8:	01df0463          	beq	t5,t4,2100 <srai_test+0x40>
    20fc:	9c0fe06f          	j	2bc <fail>
    2100:	ffffe097          	auipc	ra,0xffffe
    2104:	1ac080e7          	jalr	428(ra) # 2ac <update_test>
    2108:	800000b7          	lui	ra,0x80000
    210c:	4070df13          	srai	t5,ra,0x7
    2110:	ff000eb7          	lui	t4,0xff000
    2114:	00400193          	li	gp,4
    2118:	01df0463          	beq	t5,t4,2120 <srai_test+0x60>
    211c:	9a0fe06f          	j	2bc <fail>
    2120:	ffffe097          	auipc	ra,0xffffe
    2124:	18c080e7          	jalr	396(ra) # 2ac <update_test>
    2128:	800000b7          	lui	ra,0x80000
    212c:	40e0df13          	srai	t5,ra,0xe
    2130:	fffe0eb7          	lui	t4,0xfffe0
    2134:	00500193          	li	gp,5
    2138:	01df0463          	beq	t5,t4,2140 <srai_test+0x80>
    213c:	980fe06f          	j	2bc <fail>
    2140:	ffffe097          	auipc	ra,0xffffe
    2144:	16c080e7          	jalr	364(ra) # 2ac <update_test>
    2148:	800000b7          	lui	ra,0x80000
    214c:	00108093          	addi	ra,ra,1 # 80000001 <SSEG+0x6ef40001>
    2150:	41f0df13          	srai	t5,ra,0x1f
    2154:	fff00e93          	li	t4,-1
    2158:	00600193          	li	gp,6
    215c:	01df0463          	beq	t5,t4,2164 <srai_test+0xa4>
    2160:	95cfe06f          	j	2bc <fail>
    2164:	ffffe097          	auipc	ra,0xffffe
    2168:	148080e7          	jalr	328(ra) # 2ac <update_test>
    216c:	800000b7          	lui	ra,0x80000
    2170:	fff08093          	addi	ra,ra,-1 # 7fffffff <SSEG+0x6ef3ffff>
    2174:	4000df13          	srai	t5,ra,0x0
    2178:	80000eb7          	lui	t4,0x80000
    217c:	fffe8e93          	addi	t4,t4,-1 # 7fffffff <SSEG+0x6ef3ffff>
    2180:	00700193          	li	gp,7
    2184:	01df0463          	beq	t5,t4,218c <srai_test+0xcc>
    2188:	934fe06f          	j	2bc <fail>
    218c:	ffffe097          	auipc	ra,0xffffe
    2190:	120080e7          	jalr	288(ra) # 2ac <update_test>
    2194:	800000b7          	lui	ra,0x80000
    2198:	fff08093          	addi	ra,ra,-1 # 7fffffff <SSEG+0x6ef3ffff>
    219c:	4010df13          	srai	t5,ra,0x1
    21a0:	40000eb7          	lui	t4,0x40000
    21a4:	fffe8e93          	addi	t4,t4,-1 # 3fffffff <SSEG+0x2ef3ffff>
    21a8:	00800193          	li	gp,8
    21ac:	01df0463          	beq	t5,t4,21b4 <srai_test+0xf4>
    21b0:	90cfe06f          	j	2bc <fail>
    21b4:	ffffe097          	auipc	ra,0xffffe
    21b8:	0f8080e7          	jalr	248(ra) # 2ac <update_test>
    21bc:	800000b7          	lui	ra,0x80000
    21c0:	fff08093          	addi	ra,ra,-1 # 7fffffff <SSEG+0x6ef3ffff>
    21c4:	4070df13          	srai	t5,ra,0x7
    21c8:	01000eb7          	lui	t4,0x1000
    21cc:	fffe8e93          	addi	t4,t4,-1 # ffffff <__sp+0xfeffff>
    21d0:	00900193          	li	gp,9
    21d4:	01df0463          	beq	t5,t4,21dc <srai_test+0x11c>
    21d8:	8e4fe06f          	j	2bc <fail>
    21dc:	ffffe097          	auipc	ra,0xffffe
    21e0:	0d0080e7          	jalr	208(ra) # 2ac <update_test>
    21e4:	800000b7          	lui	ra,0x80000
    21e8:	fff08093          	addi	ra,ra,-1 # 7fffffff <SSEG+0x6ef3ffff>
    21ec:	40e0df13          	srai	t5,ra,0xe
    21f0:	00020eb7          	lui	t4,0x20
    21f4:	fffe8e93          	addi	t4,t4,-1 # 1ffff <__sp+0xffff>
    21f8:	00a00193          	li	gp,10
    21fc:	01df0463          	beq	t5,t4,2204 <srai_test+0x144>
    2200:	8bcfe06f          	j	2bc <fail>
    2204:	ffffe097          	auipc	ra,0xffffe
    2208:	0a8080e7          	jalr	168(ra) # 2ac <update_test>
    220c:	800000b7          	lui	ra,0x80000
    2210:	fff08093          	addi	ra,ra,-1 # 7fffffff <SSEG+0x6ef3ffff>
    2214:	41f0df13          	srai	t5,ra,0x1f
    2218:	00000e93          	li	t4,0
    221c:	00b00193          	li	gp,11
    2220:	01df0463          	beq	t5,t4,2228 <srai_test+0x168>
    2224:	898fe06f          	j	2bc <fail>
    2228:	ffffe097          	auipc	ra,0xffffe
    222c:	084080e7          	jalr	132(ra) # 2ac <update_test>
    2230:	818180b7          	lui	ra,0x81818
    2234:	18108093          	addi	ra,ra,385 # 81818181 <SSEG+0x70758181>
    2238:	4000df13          	srai	t5,ra,0x0
    223c:	81818eb7          	lui	t4,0x81818
    2240:	181e8e93          	addi	t4,t4,385 # 81818181 <SSEG+0x70758181>
    2244:	00c00193          	li	gp,12
    2248:	01df0463          	beq	t5,t4,2250 <srai_test+0x190>
    224c:	870fe06f          	j	2bc <fail>
    2250:	ffffe097          	auipc	ra,0xffffe
    2254:	05c080e7          	jalr	92(ra) # 2ac <update_test>
    2258:	818180b7          	lui	ra,0x81818
    225c:	18108093          	addi	ra,ra,385 # 81818181 <SSEG+0x70758181>
    2260:	4010df13          	srai	t5,ra,0x1
    2264:	c0c0ceb7          	lui	t4,0xc0c0c
    2268:	0c0e8e93          	addi	t4,t4,192 # c0c0c0c0 <SSEG+0xafb4c0c0>
    226c:	00d00193          	li	gp,13
    2270:	01df0463          	beq	t5,t4,2278 <srai_test+0x1b8>
    2274:	848fe06f          	j	2bc <fail>
    2278:	ffffe097          	auipc	ra,0xffffe
    227c:	034080e7          	jalr	52(ra) # 2ac <update_test>
    2280:	818180b7          	lui	ra,0x81818
    2284:	18108093          	addi	ra,ra,385 # 81818181 <SSEG+0x70758181>
    2288:	4070df13          	srai	t5,ra,0x7
    228c:	ff030eb7          	lui	t4,0xff030
    2290:	303e8e93          	addi	t4,t4,771 # ff030303 <SSEG+0xedf70303>
    2294:	00e00193          	li	gp,14
    2298:	01df0463          	beq	t5,t4,22a0 <srai_test+0x1e0>
    229c:	820fe06f          	j	2bc <fail>
    22a0:	ffffe097          	auipc	ra,0xffffe
    22a4:	00c080e7          	jalr	12(ra) # 2ac <update_test>
    22a8:	818180b7          	lui	ra,0x81818
    22ac:	18108093          	addi	ra,ra,385 # 81818181 <SSEG+0x70758181>
    22b0:	40e0df13          	srai	t5,ra,0xe
    22b4:	fffe0eb7          	lui	t4,0xfffe0
    22b8:	606e8e93          	addi	t4,t4,1542 # fffe0606 <SSEG+0xeef20606>
    22bc:	00f00193          	li	gp,15
    22c0:	01df0463          	beq	t5,t4,22c8 <srai_test+0x208>
    22c4:	ff9fd06f          	j	2bc <fail>
    22c8:	ffffe097          	auipc	ra,0xffffe
    22cc:	fe4080e7          	jalr	-28(ra) # 2ac <update_test>
    22d0:	818180b7          	lui	ra,0x81818
    22d4:	18108093          	addi	ra,ra,385 # 81818181 <SSEG+0x70758181>
    22d8:	41f0df13          	srai	t5,ra,0x1f
    22dc:	fff00e93          	li	t4,-1
    22e0:	01000193          	li	gp,16
    22e4:	01df0463          	beq	t5,t4,22ec <srai_test+0x22c>
    22e8:	fd5fd06f          	j	2bc <fail>
    22ec:	ffffe097          	auipc	ra,0xffffe
    22f0:	fc0080e7          	jalr	-64(ra) # 2ac <update_test>
    22f4:	800000b7          	lui	ra,0x80000
    22f8:	4070d093          	srai	ra,ra,0x7
    22fc:	ff000eb7          	lui	t4,0xff000
    2300:	01100193          	li	gp,17
    2304:	01d08463          	beq	ra,t4,230c <srai_test+0x24c>
    2308:	fb5fd06f          	j	2bc <fail>
    230c:	ffffe097          	auipc	ra,0xffffe
    2310:	fa0080e7          	jalr	-96(ra) # 2ac <update_test>
    2314:	000f8067          	jr	t6

00002318 <sltiu_test>:
    2318:	00000513          	li	a0,0
    231c:	00a62023          	sw	a0,0(a2)
    2320:	00000093          	li	ra,0
    2324:	0000bf13          	sltiu	t5,ra,0
    2328:	00000e93          	li	t4,0
    232c:	00200193          	li	gp,2
    2330:	01df0463          	beq	t5,t4,2338 <sltiu_test+0x20>
    2334:	f89fd06f          	j	2bc <fail>
    2338:	ffffe097          	auipc	ra,0xffffe
    233c:	f74080e7          	jalr	-140(ra) # 2ac <update_test>
    2340:	00100093          	li	ra,1
    2344:	0010bf13          	seqz	t5,ra
    2348:	00000e93          	li	t4,0
    234c:	00300193          	li	gp,3
    2350:	01df0463          	beq	t5,t4,2358 <sltiu_test+0x40>
    2354:	f69fd06f          	j	2bc <fail>
    2358:	ffffe097          	auipc	ra,0xffffe
    235c:	f54080e7          	jalr	-172(ra) # 2ac <update_test>
    2360:	00300093          	li	ra,3
    2364:	0070bf13          	sltiu	t5,ra,7
    2368:	00100e93          	li	t4,1
    236c:	00400193          	li	gp,4
    2370:	01df0463          	beq	t5,t4,2378 <sltiu_test+0x60>
    2374:	f49fd06f          	j	2bc <fail>
    2378:	ffffe097          	auipc	ra,0xffffe
    237c:	f34080e7          	jalr	-204(ra) # 2ac <update_test>
    2380:	00700093          	li	ra,7
    2384:	0030bf13          	sltiu	t5,ra,3
    2388:	00000e93          	li	t4,0
    238c:	00500193          	li	gp,5
    2390:	01df0463          	beq	t5,t4,2398 <sltiu_test+0x80>
    2394:	f29fd06f          	j	2bc <fail>
    2398:	ffffe097          	auipc	ra,0xffffe
    239c:	f14080e7          	jalr	-236(ra) # 2ac <update_test>
    23a0:	00000093          	li	ra,0
    23a4:	8000bf13          	sltiu	t5,ra,-2048
    23a8:	00100e93          	li	t4,1
    23ac:	00600193          	li	gp,6
    23b0:	01df0463          	beq	t5,t4,23b8 <sltiu_test+0xa0>
    23b4:	f09fd06f          	j	2bc <fail>
    23b8:	ffffe097          	auipc	ra,0xffffe
    23bc:	ef4080e7          	jalr	-268(ra) # 2ac <update_test>
    23c0:	800000b7          	lui	ra,0x80000
    23c4:	0000bf13          	sltiu	t5,ra,0
    23c8:	00000e93          	li	t4,0
    23cc:	00700193          	li	gp,7
    23d0:	01df0463          	beq	t5,t4,23d8 <sltiu_test+0xc0>
    23d4:	ee9fd06f          	j	2bc <fail>
    23d8:	ffffe097          	auipc	ra,0xffffe
    23dc:	ed4080e7          	jalr	-300(ra) # 2ac <update_test>
    23e0:	800000b7          	lui	ra,0x80000
    23e4:	8000bf13          	sltiu	t5,ra,-2048
    23e8:	00100e93          	li	t4,1
    23ec:	00800193          	li	gp,8
    23f0:	01df0463          	beq	t5,t4,23f8 <sltiu_test+0xe0>
    23f4:	ec9fd06f          	j	2bc <fail>
    23f8:	ffffe097          	auipc	ra,0xffffe
    23fc:	eb4080e7          	jalr	-332(ra) # 2ac <update_test>
    2400:	00000093          	li	ra,0
    2404:	7ff0bf13          	sltiu	t5,ra,2047
    2408:	00100e93          	li	t4,1
    240c:	00900193          	li	gp,9
    2410:	01df0463          	beq	t5,t4,2418 <sltiu_test+0x100>
    2414:	ea9fd06f          	j	2bc <fail>
    2418:	ffffe097          	auipc	ra,0xffffe
    241c:	e94080e7          	jalr	-364(ra) # 2ac <update_test>
    2420:	800000b7          	lui	ra,0x80000
    2424:	fff08093          	addi	ra,ra,-1 # 7fffffff <SSEG+0x6ef3ffff>
    2428:	0000bf13          	sltiu	t5,ra,0
    242c:	00000e93          	li	t4,0
    2430:	00a00193          	li	gp,10
    2434:	01df0463          	beq	t5,t4,243c <sltiu_test+0x124>
    2438:	e85fd06f          	j	2bc <fail>
    243c:	ffffe097          	auipc	ra,0xffffe
    2440:	e70080e7          	jalr	-400(ra) # 2ac <update_test>
    2444:	800000b7          	lui	ra,0x80000
    2448:	fff08093          	addi	ra,ra,-1 # 7fffffff <SSEG+0x6ef3ffff>
    244c:	7ff0bf13          	sltiu	t5,ra,2047
    2450:	00000e93          	li	t4,0
    2454:	00b00193          	li	gp,11
    2458:	01df0463          	beq	t5,t4,2460 <sltiu_test+0x148>
    245c:	e61fd06f          	j	2bc <fail>
    2460:	ffffe097          	auipc	ra,0xffffe
    2464:	e4c080e7          	jalr	-436(ra) # 2ac <update_test>
    2468:	800000b7          	lui	ra,0x80000
    246c:	7ff0bf13          	sltiu	t5,ra,2047
    2470:	00000e93          	li	t4,0
    2474:	00c00193          	li	gp,12
    2478:	01df0463          	beq	t5,t4,2480 <sltiu_test+0x168>
    247c:	e41fd06f          	j	2bc <fail>
    2480:	ffffe097          	auipc	ra,0xffffe
    2484:	e2c080e7          	jalr	-468(ra) # 2ac <update_test>
    2488:	800000b7          	lui	ra,0x80000
    248c:	fff08093          	addi	ra,ra,-1 # 7fffffff <SSEG+0x6ef3ffff>
    2490:	8000bf13          	sltiu	t5,ra,-2048
    2494:	00100e93          	li	t4,1
    2498:	00d00193          	li	gp,13
    249c:	01df0463          	beq	t5,t4,24a4 <sltiu_test+0x18c>
    24a0:	e1dfd06f          	j	2bc <fail>
    24a4:	ffffe097          	auipc	ra,0xffffe
    24a8:	e08080e7          	jalr	-504(ra) # 2ac <update_test>
    24ac:	00000093          	li	ra,0
    24b0:	fff0bf13          	sltiu	t5,ra,-1
    24b4:	00100e93          	li	t4,1
    24b8:	00e00193          	li	gp,14
    24bc:	01df0463          	beq	t5,t4,24c4 <sltiu_test+0x1ac>
    24c0:	dfdfd06f          	j	2bc <fail>
    24c4:	ffffe097          	auipc	ra,0xffffe
    24c8:	de8080e7          	jalr	-536(ra) # 2ac <update_test>
    24cc:	fff00093          	li	ra,-1
    24d0:	0010bf13          	seqz	t5,ra
    24d4:	00000e93          	li	t4,0
    24d8:	00f00193          	li	gp,15
    24dc:	01df0463          	beq	t5,t4,24e4 <sltiu_test+0x1cc>
    24e0:	dddfd06f          	j	2bc <fail>
    24e4:	ffffe097          	auipc	ra,0xffffe
    24e8:	dc8080e7          	jalr	-568(ra) # 2ac <update_test>
    24ec:	fff00093          	li	ra,-1
    24f0:	fff0bf13          	sltiu	t5,ra,-1
    24f4:	00000e93          	li	t4,0
    24f8:	01000193          	li	gp,16
    24fc:	01df0463          	beq	t5,t4,2504 <sltiu_test+0x1ec>
    2500:	dbdfd06f          	j	2bc <fail>
    2504:	ffffe097          	auipc	ra,0xffffe
    2508:	da8080e7          	jalr	-600(ra) # 2ac <update_test>
    250c:	00b00093          	li	ra,11
    2510:	00d0b093          	sltiu	ra,ra,13
    2514:	00100e93          	li	t4,1
    2518:	01100193          	li	gp,17
    251c:	01d08463          	beq	ra,t4,2524 <sltiu_test+0x20c>
    2520:	d9dfd06f          	j	2bc <fail>
    2524:	ffffe097          	auipc	ra,0xffffe
    2528:	d88080e7          	jalr	-632(ra) # 2ac <update_test>
    252c:	000f8067          	jr	t6

00002530 <slti_test>:
    2530:	00000513          	li	a0,0
    2534:	00a62023          	sw	a0,0(a2)
    2538:	00000093          	li	ra,0
    253c:	0000af13          	slti	t5,ra,0
    2540:	00000e93          	li	t4,0
    2544:	00200193          	li	gp,2
    2548:	01df0463          	beq	t5,t4,2550 <slti_test+0x20>
    254c:	d71fd06f          	j	2bc <fail>
    2550:	ffffe097          	auipc	ra,0xffffe
    2554:	d5c080e7          	jalr	-676(ra) # 2ac <update_test>
    2558:	00100093          	li	ra,1
    255c:	0010af13          	slti	t5,ra,1
    2560:	00000e93          	li	t4,0
    2564:	00300193          	li	gp,3
    2568:	01df0463          	beq	t5,t4,2570 <slti_test+0x40>
    256c:	d51fd06f          	j	2bc <fail>
    2570:	ffffe097          	auipc	ra,0xffffe
    2574:	d3c080e7          	jalr	-708(ra) # 2ac <update_test>
    2578:	00300093          	li	ra,3
    257c:	0070af13          	slti	t5,ra,7
    2580:	00100e93          	li	t4,1
    2584:	00400193          	li	gp,4
    2588:	01df0463          	beq	t5,t4,2590 <slti_test+0x60>
    258c:	d31fd06f          	j	2bc <fail>
    2590:	ffffe097          	auipc	ra,0xffffe
    2594:	d1c080e7          	jalr	-740(ra) # 2ac <update_test>
    2598:	00700093          	li	ra,7
    259c:	0030af13          	slti	t5,ra,3
    25a0:	00000e93          	li	t4,0
    25a4:	00500193          	li	gp,5
    25a8:	01df0463          	beq	t5,t4,25b0 <slti_test+0x80>
    25ac:	d11fd06f          	j	2bc <fail>
    25b0:	ffffe097          	auipc	ra,0xffffe
    25b4:	cfc080e7          	jalr	-772(ra) # 2ac <update_test>
    25b8:	00000093          	li	ra,0
    25bc:	8000af13          	slti	t5,ra,-2048
    25c0:	00000e93          	li	t4,0
    25c4:	00600193          	li	gp,6
    25c8:	01df0463          	beq	t5,t4,25d0 <slti_test+0xa0>
    25cc:	cf1fd06f          	j	2bc <fail>
    25d0:	ffffe097          	auipc	ra,0xffffe
    25d4:	cdc080e7          	jalr	-804(ra) # 2ac <update_test>
    25d8:	800000b7          	lui	ra,0x80000
    25dc:	0000af13          	slti	t5,ra,0
    25e0:	00100e93          	li	t4,1
    25e4:	00700193          	li	gp,7
    25e8:	01df0463          	beq	t5,t4,25f0 <slti_test+0xc0>
    25ec:	cd1fd06f          	j	2bc <fail>
    25f0:	ffffe097          	auipc	ra,0xffffe
    25f4:	cbc080e7          	jalr	-836(ra) # 2ac <update_test>
    25f8:	800000b7          	lui	ra,0x80000
    25fc:	8000af13          	slti	t5,ra,-2048
    2600:	00100e93          	li	t4,1
    2604:	00800193          	li	gp,8
    2608:	01df0463          	beq	t5,t4,2610 <slti_test+0xe0>
    260c:	cb1fd06f          	j	2bc <fail>
    2610:	ffffe097          	auipc	ra,0xffffe
    2614:	c9c080e7          	jalr	-868(ra) # 2ac <update_test>
    2618:	00000093          	li	ra,0
    261c:	7ff0af13          	slti	t5,ra,2047
    2620:	00100e93          	li	t4,1
    2624:	00900193          	li	gp,9
    2628:	01df0463          	beq	t5,t4,2630 <slti_test+0x100>
    262c:	c91fd06f          	j	2bc <fail>
    2630:	ffffe097          	auipc	ra,0xffffe
    2634:	c7c080e7          	jalr	-900(ra) # 2ac <update_test>
    2638:	800000b7          	lui	ra,0x80000
    263c:	fff08093          	addi	ra,ra,-1 # 7fffffff <SSEG+0x6ef3ffff>
    2640:	0000af13          	slti	t5,ra,0
    2644:	00000e93          	li	t4,0
    2648:	00a00193          	li	gp,10
    264c:	01df0463          	beq	t5,t4,2654 <slti_test+0x124>
    2650:	c6dfd06f          	j	2bc <fail>
    2654:	ffffe097          	auipc	ra,0xffffe
    2658:	c58080e7          	jalr	-936(ra) # 2ac <update_test>
    265c:	800000b7          	lui	ra,0x80000
    2660:	fff08093          	addi	ra,ra,-1 # 7fffffff <SSEG+0x6ef3ffff>
    2664:	7ff0af13          	slti	t5,ra,2047
    2668:	00000e93          	li	t4,0
    266c:	00b00193          	li	gp,11
    2670:	01df0463          	beq	t5,t4,2678 <slti_test+0x148>
    2674:	c49fd06f          	j	2bc <fail>
    2678:	ffffe097          	auipc	ra,0xffffe
    267c:	c34080e7          	jalr	-972(ra) # 2ac <update_test>
    2680:	800000b7          	lui	ra,0x80000
    2684:	7ff0af13          	slti	t5,ra,2047
    2688:	00100e93          	li	t4,1
    268c:	00c00193          	li	gp,12
    2690:	01df0463          	beq	t5,t4,2698 <slti_test+0x168>
    2694:	c29fd06f          	j	2bc <fail>
    2698:	ffffe097          	auipc	ra,0xffffe
    269c:	c14080e7          	jalr	-1004(ra) # 2ac <update_test>
    26a0:	800000b7          	lui	ra,0x80000
    26a4:	fff08093          	addi	ra,ra,-1 # 7fffffff <SSEG+0x6ef3ffff>
    26a8:	8000af13          	slti	t5,ra,-2048
    26ac:	00000e93          	li	t4,0
    26b0:	00d00193          	li	gp,13
    26b4:	01df0463          	beq	t5,t4,26bc <slti_test+0x18c>
    26b8:	c05fd06f          	j	2bc <fail>
    26bc:	ffffe097          	auipc	ra,0xffffe
    26c0:	bf0080e7          	jalr	-1040(ra) # 2ac <update_test>
    26c4:	00000093          	li	ra,0
    26c8:	fff0af13          	slti	t5,ra,-1
    26cc:	00000e93          	li	t4,0
    26d0:	00e00193          	li	gp,14
    26d4:	01df0463          	beq	t5,t4,26dc <slti_test+0x1ac>
    26d8:	be5fd06f          	j	2bc <fail>
    26dc:	ffffe097          	auipc	ra,0xffffe
    26e0:	bd0080e7          	jalr	-1072(ra) # 2ac <update_test>
    26e4:	fff00093          	li	ra,-1
    26e8:	0010af13          	slti	t5,ra,1
    26ec:	00100e93          	li	t4,1
    26f0:	00f00193          	li	gp,15
    26f4:	01df0463          	beq	t5,t4,26fc <slti_test+0x1cc>
    26f8:	bc5fd06f          	j	2bc <fail>
    26fc:	ffffe097          	auipc	ra,0xffffe
    2700:	bb0080e7          	jalr	-1104(ra) # 2ac <update_test>
    2704:	fff00093          	li	ra,-1
    2708:	fff0af13          	slti	t5,ra,-1
    270c:	00000e93          	li	t4,0
    2710:	01000193          	li	gp,16
    2714:	01df0463          	beq	t5,t4,271c <slti_test+0x1ec>
    2718:	ba5fd06f          	j	2bc <fail>
    271c:	ffffe097          	auipc	ra,0xffffe
    2720:	b90080e7          	jalr	-1136(ra) # 2ac <update_test>
    2724:	00b00093          	li	ra,11
    2728:	00d0a093          	slti	ra,ra,13
    272c:	00100e93          	li	t4,1
    2730:	01100193          	li	gp,17
    2734:	01d08463          	beq	ra,t4,273c <slti_test+0x20c>
    2738:	b85fd06f          	j	2bc <fail>
    273c:	ffffe097          	auipc	ra,0xffffe
    2740:	b70080e7          	jalr	-1168(ra) # 2ac <update_test>
    2744:	000f8067          	jr	t6

00002748 <lw_test>:
    2748:	00000513          	li	a0,0
    274c:	00a62023          	sw	a0,0(a2)
    2750:	00002097          	auipc	ra,0x2
    2754:	87408093          	addi	ra,ra,-1932 # 3fc4 <tdat1lw>
    2758:	0000af03          	lw	t5,0(ra)
    275c:	00ff0eb7          	lui	t4,0xff0
    2760:	0ffe8e93          	addi	t4,t4,255 # ff00ff <__sp+0xfe00ff>
    2764:	00200193          	li	gp,2
    2768:	01df0463          	beq	t5,t4,2770 <lw_test+0x28>
    276c:	b51fd06f          	j	2bc <fail>
    2770:	ffffe097          	auipc	ra,0xffffe
    2774:	b3c080e7          	jalr	-1220(ra) # 2ac <update_test>
    2778:	00002097          	auipc	ra,0x2
    277c:	84c08093          	addi	ra,ra,-1972 # 3fc4 <tdat1lw>
    2780:	0040af03          	lw	t5,4(ra)
    2784:	ff010eb7          	lui	t4,0xff010
    2788:	f00e8e93          	addi	t4,t4,-256 # ff00ff00 <SSEG+0xedf4ff00>
    278c:	00300193          	li	gp,3
    2790:	01df0463          	beq	t5,t4,2798 <lw_test+0x50>
    2794:	b29fd06f          	j	2bc <fail>
    2798:	ffffe097          	auipc	ra,0xffffe
    279c:	b14080e7          	jalr	-1260(ra) # 2ac <update_test>
    27a0:	00002097          	auipc	ra,0x2
    27a4:	82408093          	addi	ra,ra,-2012 # 3fc4 <tdat1lw>
    27a8:	0080af03          	lw	t5,8(ra)
    27ac:	0ff01eb7          	lui	t4,0xff01
    27b0:	ff0e8e93          	addi	t4,t4,-16 # ff00ff0 <__sp+0xfef0ff0>
    27b4:	00400193          	li	gp,4
    27b8:	01df0463          	beq	t5,t4,27c0 <lw_test+0x78>
    27bc:	b01fd06f          	j	2bc <fail>
    27c0:	ffffe097          	auipc	ra,0xffffe
    27c4:	aec080e7          	jalr	-1300(ra) # 2ac <update_test>
    27c8:	00001097          	auipc	ra,0x1
    27cc:	7fc08093          	addi	ra,ra,2044 # 3fc4 <tdat1lw>
    27d0:	00c0af03          	lw	t5,12(ra)
    27d4:	f00ffeb7          	lui	t4,0xf00ff
    27d8:	00fe8e93          	addi	t4,t4,15 # f00ff00f <SSEG+0xdf03f00f>
    27dc:	00500193          	li	gp,5
    27e0:	01df0463          	beq	t5,t4,27e8 <lw_test+0xa0>
    27e4:	ad9fd06f          	j	2bc <fail>
    27e8:	ffffe097          	auipc	ra,0xffffe
    27ec:	ac4080e7          	jalr	-1340(ra) # 2ac <update_test>
    27f0:	00001097          	auipc	ra,0x1
    27f4:	7e008093          	addi	ra,ra,2016 # 3fd0 <tdat4lw>
    27f8:	ff40af03          	lw	t5,-12(ra)
    27fc:	00ff0eb7          	lui	t4,0xff0
    2800:	0ffe8e93          	addi	t4,t4,255 # ff00ff <__sp+0xfe00ff>
    2804:	00600193          	li	gp,6
    2808:	01df0463          	beq	t5,t4,2810 <lw_test+0xc8>
    280c:	ab1fd06f          	j	2bc <fail>
    2810:	ffffe097          	auipc	ra,0xffffe
    2814:	a9c080e7          	jalr	-1380(ra) # 2ac <update_test>
    2818:	00001097          	auipc	ra,0x1
    281c:	7b808093          	addi	ra,ra,1976 # 3fd0 <tdat4lw>
    2820:	ff80af03          	lw	t5,-8(ra)
    2824:	ff010eb7          	lui	t4,0xff010
    2828:	f00e8e93          	addi	t4,t4,-256 # ff00ff00 <SSEG+0xedf4ff00>
    282c:	00700193          	li	gp,7
    2830:	01df0463          	beq	t5,t4,2838 <lw_test+0xf0>
    2834:	a89fd06f          	j	2bc <fail>
    2838:	ffffe097          	auipc	ra,0xffffe
    283c:	a74080e7          	jalr	-1420(ra) # 2ac <update_test>
    2840:	00001097          	auipc	ra,0x1
    2844:	79008093          	addi	ra,ra,1936 # 3fd0 <tdat4lw>
    2848:	ffc0af03          	lw	t5,-4(ra)
    284c:	0ff01eb7          	lui	t4,0xff01
    2850:	ff0e8e93          	addi	t4,t4,-16 # ff00ff0 <__sp+0xfef0ff0>
    2854:	00800193          	li	gp,8
    2858:	01df0463          	beq	t5,t4,2860 <lw_test+0x118>
    285c:	a61fd06f          	j	2bc <fail>
    2860:	ffffe097          	auipc	ra,0xffffe
    2864:	a4c080e7          	jalr	-1460(ra) # 2ac <update_test>
    2868:	00001097          	auipc	ra,0x1
    286c:	76808093          	addi	ra,ra,1896 # 3fd0 <tdat4lw>
    2870:	0000af03          	lw	t5,0(ra)
    2874:	f00ffeb7          	lui	t4,0xf00ff
    2878:	00fe8e93          	addi	t4,t4,15 # f00ff00f <SSEG+0xdf03f00f>
    287c:	00900193          	li	gp,9
    2880:	01df0463          	beq	t5,t4,2888 <lw_test+0x140>
    2884:	a39fd06f          	j	2bc <fail>
    2888:	ffffe097          	auipc	ra,0xffffe
    288c:	a24080e7          	jalr	-1500(ra) # 2ac <update_test>
    2890:	00001097          	auipc	ra,0x1
    2894:	73408093          	addi	ra,ra,1844 # 3fc4 <tdat1lw>
    2898:	fe008093          	addi	ra,ra,-32
    289c:	0200a283          	lw	t0,32(ra)
    28a0:	00ff0eb7          	lui	t4,0xff0
    28a4:	0ffe8e93          	addi	t4,t4,255 # ff00ff <__sp+0xfe00ff>
    28a8:	00a00193          	li	gp,10
    28ac:	01d28463          	beq	t0,t4,28b4 <lw_test+0x16c>
    28b0:	a0dfd06f          	j	2bc <fail>
    28b4:	ffffe097          	auipc	ra,0xffffe
    28b8:	9f8080e7          	jalr	-1544(ra) # 2ac <update_test>
    28bc:	000f8067          	jr	t6

000028c0 <sw_test>:
    28c0:	00000513          	li	a0,0
    28c4:	00a62023          	sw	a0,0(a2)
    28c8:	00001097          	auipc	ra,0x1
    28cc:	70c08093          	addi	ra,ra,1804 # 3fd4 <tdat>
    28d0:	00aa0137          	lui	sp,0xaa0
    28d4:	0aa10113          	addi	sp,sp,170 # aa00aa <__sp+0xa900aa>
    28d8:	0020a023          	sw	sp,0(ra)
    28dc:	0000af03          	lw	t5,0(ra)
    28e0:	00aa0eb7          	lui	t4,0xaa0
    28e4:	0aae8e93          	addi	t4,t4,170 # aa00aa <__sp+0xa900aa>
    28e8:	00200193          	li	gp,2
    28ec:	01df0463          	beq	t5,t4,28f4 <sw_test+0x34>
    28f0:	9cdfd06f          	j	2bc <fail>
    28f4:	ffffe097          	auipc	ra,0xffffe
    28f8:	9b8080e7          	jalr	-1608(ra) # 2ac <update_test>
    28fc:	00001097          	auipc	ra,0x1
    2900:	6d808093          	addi	ra,ra,1752 # 3fd4 <tdat>
    2904:	aa00b137          	lui	sp,0xaa00b
    2908:	a0010113          	addi	sp,sp,-1536 # aa00aa00 <SSEG+0x98f4aa00>
    290c:	0020a223          	sw	sp,4(ra)
    2910:	0040af03          	lw	t5,4(ra)
    2914:	aa00beb7          	lui	t4,0xaa00b
    2918:	a00e8e93          	addi	t4,t4,-1536 # aa00aa00 <SSEG+0x98f4aa00>
    291c:	00300193          	li	gp,3
    2920:	01df0463          	beq	t5,t4,2928 <sw_test+0x68>
    2924:	999fd06f          	j	2bc <fail>
    2928:	ffffe097          	auipc	ra,0xffffe
    292c:	984080e7          	jalr	-1660(ra) # 2ac <update_test>
    2930:	00001097          	auipc	ra,0x1
    2934:	6a408093          	addi	ra,ra,1700 # 3fd4 <tdat>
    2938:	0aa01137          	lui	sp,0xaa01
    293c:	aa010113          	addi	sp,sp,-1376 # aa00aa0 <__sp+0xa9f0aa0>
    2940:	0020a423          	sw	sp,8(ra)
    2944:	0080af03          	lw	t5,8(ra)
    2948:	0aa01eb7          	lui	t4,0xaa01
    294c:	aa0e8e93          	addi	t4,t4,-1376 # aa00aa0 <__sp+0xa9f0aa0>
    2950:	00400193          	li	gp,4
    2954:	01df0463          	beq	t5,t4,295c <sw_test+0x9c>
    2958:	965fd06f          	j	2bc <fail>
    295c:	ffffe097          	auipc	ra,0xffffe
    2960:	950080e7          	jalr	-1712(ra) # 2ac <update_test>
    2964:	00001097          	auipc	ra,0x1
    2968:	67008093          	addi	ra,ra,1648 # 3fd4 <tdat>
    296c:	a00aa137          	lui	sp,0xa00aa
    2970:	00a10113          	addi	sp,sp,10 # a00aa00a <SSEG+0x8efea00a>
    2974:	0020a623          	sw	sp,12(ra)
    2978:	00c0af03          	lw	t5,12(ra)
    297c:	a00aaeb7          	lui	t4,0xa00aa
    2980:	00ae8e93          	addi	t4,t4,10 # a00aa00a <SSEG+0x8efea00a>
    2984:	00500193          	li	gp,5
    2988:	01df0463          	beq	t5,t4,2990 <sw_test+0xd0>
    298c:	931fd06f          	j	2bc <fail>
    2990:	ffffe097          	auipc	ra,0xffffe
    2994:	91c080e7          	jalr	-1764(ra) # 2ac <update_test>
    2998:	00001097          	auipc	ra,0x1
    299c:	65808093          	addi	ra,ra,1624 # 3ff0 <tdat8>
    29a0:	00aa0137          	lui	sp,0xaa0
    29a4:	0aa10113          	addi	sp,sp,170 # aa00aa <__sp+0xa900aa>
    29a8:	fe20aa23          	sw	sp,-12(ra)
    29ac:	ff40af03          	lw	t5,-12(ra)
    29b0:	00aa0eb7          	lui	t4,0xaa0
    29b4:	0aae8e93          	addi	t4,t4,170 # aa00aa <__sp+0xa900aa>
    29b8:	00600193          	li	gp,6
    29bc:	01df0463          	beq	t5,t4,29c4 <sw_test+0x104>
    29c0:	8fdfd06f          	j	2bc <fail>
    29c4:	ffffe097          	auipc	ra,0xffffe
    29c8:	8e8080e7          	jalr	-1816(ra) # 2ac <update_test>
    29cc:	00001097          	auipc	ra,0x1
    29d0:	62408093          	addi	ra,ra,1572 # 3ff0 <tdat8>
    29d4:	aa00b137          	lui	sp,0xaa00b
    29d8:	a0010113          	addi	sp,sp,-1536 # aa00aa00 <SSEG+0x98f4aa00>
    29dc:	fe20ac23          	sw	sp,-8(ra)
    29e0:	ff80af03          	lw	t5,-8(ra)
    29e4:	aa00beb7          	lui	t4,0xaa00b
    29e8:	a00e8e93          	addi	t4,t4,-1536 # aa00aa00 <SSEG+0x98f4aa00>
    29ec:	00700193          	li	gp,7
    29f0:	01df0463          	beq	t5,t4,29f8 <sw_test+0x138>
    29f4:	8c9fd06f          	j	2bc <fail>
    29f8:	ffffe097          	auipc	ra,0xffffe
    29fc:	8b4080e7          	jalr	-1868(ra) # 2ac <update_test>
    2a00:	00001097          	auipc	ra,0x1
    2a04:	5f008093          	addi	ra,ra,1520 # 3ff0 <tdat8>
    2a08:	0aa01137          	lui	sp,0xaa01
    2a0c:	aa010113          	addi	sp,sp,-1376 # aa00aa0 <__sp+0xa9f0aa0>
    2a10:	fe20ae23          	sw	sp,-4(ra)
    2a14:	ffc0af03          	lw	t5,-4(ra)
    2a18:	0aa01eb7          	lui	t4,0xaa01
    2a1c:	aa0e8e93          	addi	t4,t4,-1376 # aa00aa0 <__sp+0xa9f0aa0>
    2a20:	00800193          	li	gp,8
    2a24:	01df0463          	beq	t5,t4,2a2c <sw_test+0x16c>
    2a28:	895fd06f          	j	2bc <fail>
    2a2c:	ffffe097          	auipc	ra,0xffffe
    2a30:	880080e7          	jalr	-1920(ra) # 2ac <update_test>
    2a34:	00001097          	auipc	ra,0x1
    2a38:	5bc08093          	addi	ra,ra,1468 # 3ff0 <tdat8>
    2a3c:	a00aa137          	lui	sp,0xa00aa
    2a40:	00a10113          	addi	sp,sp,10 # a00aa00a <SSEG+0x8efea00a>
    2a44:	0020a023          	sw	sp,0(ra)
    2a48:	0000af03          	lw	t5,0(ra)
    2a4c:	a00aaeb7          	lui	t4,0xa00aa
    2a50:	00ae8e93          	addi	t4,t4,10 # a00aa00a <SSEG+0x8efea00a>
    2a54:	00900193          	li	gp,9
    2a58:	01df0463          	beq	t5,t4,2a60 <sw_test+0x1a0>
    2a5c:	861fd06f          	j	2bc <fail>
    2a60:	ffffe097          	auipc	ra,0xffffe
    2a64:	84c080e7          	jalr	-1972(ra) # 2ac <update_test>
    2a68:	00001097          	auipc	ra,0x1
    2a6c:	58c08093          	addi	ra,ra,1420 # 3ff4 <tdat9>
    2a70:	12345137          	lui	sp,0x12345
    2a74:	67810113          	addi	sp,sp,1656 # 12345678 <SSEG+0x1285678>
    2a78:	fe008213          	addi	tp,ra,-32
    2a7c:	02222023          	sw	sp,32(tp) # 20 <int_setup+0x20>
    2a80:	0000a283          	lw	t0,0(ra)
    2a84:	12345eb7          	lui	t4,0x12345
    2a88:	678e8e93          	addi	t4,t4,1656 # 12345678 <SSEG+0x1285678>
    2a8c:	00a00193          	li	gp,10
    2a90:	01d28463          	beq	t0,t4,2a98 <sw_test+0x1d8>
    2a94:	829fd06f          	j	2bc <fail>
    2a98:	ffffe097          	auipc	ra,0xffffe
    2a9c:	814080e7          	jalr	-2028(ra) # 2ac <update_test>
    2aa0:	000f8067          	jr	t6

00002aa4 <beq_test>:
    2aa4:	00000513          	li	a0,0
    2aa8:	00a62023          	sw	a0,0(a2)
    2aac:	00200193          	li	gp,2
    2ab0:	00000093          	li	ra,0
    2ab4:	00000113          	li	sp,0
    2ab8:	00208863          	beq	ra,sp,2ac8 <beq_test+0x24>
    2abc:	00300463          	beq	zero,gp,2ac4 <beq_test+0x20>
    2ac0:	ffcfd06f          	j	2bc <fail>
    2ac4:	00301863          	bne	zero,gp,2ad4 <beq_test+0x30>
    2ac8:	fe208ee3          	beq	ra,sp,2ac4 <beq_test+0x20>
    2acc:	00300463          	beq	zero,gp,2ad4 <beq_test+0x30>
    2ad0:	fecfd06f          	j	2bc <fail>
    2ad4:	ffffd097          	auipc	ra,0xffffd
    2ad8:	7d8080e7          	jalr	2008(ra) # 2ac <update_test>
    2adc:	00300193          	li	gp,3
    2ae0:	00100093          	li	ra,1
    2ae4:	00100113          	li	sp,1
    2ae8:	00208863          	beq	ra,sp,2af8 <beq_test+0x54>
    2aec:	00300463          	beq	zero,gp,2af4 <beq_test+0x50>
    2af0:	fccfd06f          	j	2bc <fail>
    2af4:	00301863          	bne	zero,gp,2b04 <beq_test+0x60>
    2af8:	fe208ee3          	beq	ra,sp,2af4 <beq_test+0x50>
    2afc:	00300463          	beq	zero,gp,2b04 <beq_test+0x60>
    2b00:	fbcfd06f          	j	2bc <fail>
    2b04:	ffffd097          	auipc	ra,0xffffd
    2b08:	7a8080e7          	jalr	1960(ra) # 2ac <update_test>
    2b0c:	00400193          	li	gp,4
    2b10:	fff00093          	li	ra,-1
    2b14:	fff00113          	li	sp,-1
    2b18:	00208863          	beq	ra,sp,2b28 <beq_test+0x84>
    2b1c:	00300463          	beq	zero,gp,2b24 <beq_test+0x80>
    2b20:	f9cfd06f          	j	2bc <fail>
    2b24:	00301863          	bne	zero,gp,2b34 <beq_test+0x90>
    2b28:	fe208ee3          	beq	ra,sp,2b24 <beq_test+0x80>
    2b2c:	00300463          	beq	zero,gp,2b34 <beq_test+0x90>
    2b30:	f8cfd06f          	j	2bc <fail>
    2b34:	ffffd097          	auipc	ra,0xffffd
    2b38:	778080e7          	jalr	1912(ra) # 2ac <update_test>
    2b3c:	00500193          	li	gp,5
    2b40:	00000093          	li	ra,0
    2b44:	00100113          	li	sp,1
    2b48:	00208463          	beq	ra,sp,2b50 <beq_test+0xac>
    2b4c:	00301663          	bne	zero,gp,2b58 <beq_test+0xb4>
    2b50:	00300463          	beq	zero,gp,2b58 <beq_test+0xb4>
    2b54:	f68fd06f          	j	2bc <fail>
    2b58:	fe208ce3          	beq	ra,sp,2b50 <beq_test+0xac>
    2b5c:	ffffd097          	auipc	ra,0xffffd
    2b60:	750080e7          	jalr	1872(ra) # 2ac <update_test>
    2b64:	00600193          	li	gp,6
    2b68:	00100093          	li	ra,1
    2b6c:	00000113          	li	sp,0
    2b70:	00208463          	beq	ra,sp,2b78 <beq_test+0xd4>
    2b74:	00301663          	bne	zero,gp,2b80 <beq_test+0xdc>
    2b78:	00300463          	beq	zero,gp,2b80 <beq_test+0xdc>
    2b7c:	f40fd06f          	j	2bc <fail>
    2b80:	fe208ce3          	beq	ra,sp,2b78 <beq_test+0xd4>
    2b84:	ffffd097          	auipc	ra,0xffffd
    2b88:	728080e7          	jalr	1832(ra) # 2ac <update_test>
    2b8c:	00700193          	li	gp,7
    2b90:	fff00093          	li	ra,-1
    2b94:	00100113          	li	sp,1
    2b98:	00208463          	beq	ra,sp,2ba0 <beq_test+0xfc>
    2b9c:	00301663          	bne	zero,gp,2ba8 <beq_test+0x104>
    2ba0:	00300463          	beq	zero,gp,2ba8 <beq_test+0x104>
    2ba4:	f18fd06f          	j	2bc <fail>
    2ba8:	fe208ce3          	beq	ra,sp,2ba0 <beq_test+0xfc>
    2bac:	ffffd097          	auipc	ra,0xffffd
    2bb0:	700080e7          	jalr	1792(ra) # 2ac <update_test>
    2bb4:	00800193          	li	gp,8
    2bb8:	00100093          	li	ra,1
    2bbc:	fff00113          	li	sp,-1
    2bc0:	00208463          	beq	ra,sp,2bc8 <beq_test+0x124>
    2bc4:	00301663          	bne	zero,gp,2bd0 <beq_test+0x12c>
    2bc8:	00300463          	beq	zero,gp,2bd0 <beq_test+0x12c>
    2bcc:	ef0fd06f          	j	2bc <fail>
    2bd0:	fe208ce3          	beq	ra,sp,2bc8 <beq_test+0x124>
    2bd4:	ffffd097          	auipc	ra,0xffffd
    2bd8:	6d8080e7          	jalr	1752(ra) # 2ac <update_test>
    2bdc:	000f8067          	jr	t6

00002be0 <bne_test>:
    2be0:	00000513          	li	a0,0
    2be4:	00a62023          	sw	a0,0(a2)
    2be8:	00200193          	li	gp,2
    2bec:	00000093          	li	ra,0
    2bf0:	00100113          	li	sp,1
    2bf4:	00209863          	bne	ra,sp,2c04 <bne_test+0x24>
    2bf8:	00300463          	beq	zero,gp,2c00 <bne_test+0x20>
    2bfc:	ec0fd06f          	j	2bc <fail>
    2c00:	00301863          	bne	zero,gp,2c10 <bne_test+0x30>
    2c04:	fe209ee3          	bne	ra,sp,2c00 <bne_test+0x20>
    2c08:	00300463          	beq	zero,gp,2c10 <bne_test+0x30>
    2c0c:	eb0fd06f          	j	2bc <fail>
    2c10:	ffffd097          	auipc	ra,0xffffd
    2c14:	69c080e7          	jalr	1692(ra) # 2ac <update_test>
    2c18:	00300193          	li	gp,3
    2c1c:	00100093          	li	ra,1
    2c20:	00000113          	li	sp,0
    2c24:	00209863          	bne	ra,sp,2c34 <bne_test+0x54>
    2c28:	00300463          	beq	zero,gp,2c30 <bne_test+0x50>
    2c2c:	e90fd06f          	j	2bc <fail>
    2c30:	00301863          	bne	zero,gp,2c40 <bne_test+0x60>
    2c34:	fe209ee3          	bne	ra,sp,2c30 <bne_test+0x50>
    2c38:	00300463          	beq	zero,gp,2c40 <bne_test+0x60>
    2c3c:	e80fd06f          	j	2bc <fail>
    2c40:	ffffd097          	auipc	ra,0xffffd
    2c44:	66c080e7          	jalr	1644(ra) # 2ac <update_test>
    2c48:	00400193          	li	gp,4
    2c4c:	fff00093          	li	ra,-1
    2c50:	00100113          	li	sp,1
    2c54:	00209863          	bne	ra,sp,2c64 <bne_test+0x84>
    2c58:	00300463          	beq	zero,gp,2c60 <bne_test+0x80>
    2c5c:	e60fd06f          	j	2bc <fail>
    2c60:	00301863          	bne	zero,gp,2c70 <bne_test+0x90>
    2c64:	fe209ee3          	bne	ra,sp,2c60 <bne_test+0x80>
    2c68:	00300463          	beq	zero,gp,2c70 <bne_test+0x90>
    2c6c:	e50fd06f          	j	2bc <fail>
    2c70:	ffffd097          	auipc	ra,0xffffd
    2c74:	63c080e7          	jalr	1596(ra) # 2ac <update_test>
    2c78:	00500193          	li	gp,5
    2c7c:	00100093          	li	ra,1
    2c80:	fff00113          	li	sp,-1
    2c84:	00209863          	bne	ra,sp,2c94 <bne_test+0xb4>
    2c88:	00300463          	beq	zero,gp,2c90 <bne_test+0xb0>
    2c8c:	e30fd06f          	j	2bc <fail>
    2c90:	00301863          	bne	zero,gp,2ca0 <bne_test+0xc0>
    2c94:	fe209ee3          	bne	ra,sp,2c90 <bne_test+0xb0>
    2c98:	00300463          	beq	zero,gp,2ca0 <bne_test+0xc0>
    2c9c:	e20fd06f          	j	2bc <fail>
    2ca0:	ffffd097          	auipc	ra,0xffffd
    2ca4:	60c080e7          	jalr	1548(ra) # 2ac <update_test>
    2ca8:	00600193          	li	gp,6
    2cac:	00000093          	li	ra,0
    2cb0:	00000113          	li	sp,0
    2cb4:	00209463          	bne	ra,sp,2cbc <bne_test+0xdc>
    2cb8:	00301663          	bne	zero,gp,2cc4 <bne_test+0xe4>
    2cbc:	00300463          	beq	zero,gp,2cc4 <bne_test+0xe4>
    2cc0:	dfcfd06f          	j	2bc <fail>
    2cc4:	fe209ce3          	bne	ra,sp,2cbc <bne_test+0xdc>
    2cc8:	ffffd097          	auipc	ra,0xffffd
    2ccc:	5e4080e7          	jalr	1508(ra) # 2ac <update_test>
    2cd0:	00700193          	li	gp,7
    2cd4:	00100093          	li	ra,1
    2cd8:	00100113          	li	sp,1
    2cdc:	00209463          	bne	ra,sp,2ce4 <bne_test+0x104>
    2ce0:	00301663          	bne	zero,gp,2cec <bne_test+0x10c>
    2ce4:	00300463          	beq	zero,gp,2cec <bne_test+0x10c>
    2ce8:	dd4fd06f          	j	2bc <fail>
    2cec:	fe209ce3          	bne	ra,sp,2ce4 <bne_test+0x104>
    2cf0:	ffffd097          	auipc	ra,0xffffd
    2cf4:	5bc080e7          	jalr	1468(ra) # 2ac <update_test>
    2cf8:	00800193          	li	gp,8
    2cfc:	fff00093          	li	ra,-1
    2d00:	fff00113          	li	sp,-1
    2d04:	00209463          	bne	ra,sp,2d0c <bne_test+0x12c>
    2d08:	00301663          	bne	zero,gp,2d14 <bne_test+0x134>
    2d0c:	00300463          	beq	zero,gp,2d14 <bne_test+0x134>
    2d10:	dacfd06f          	j	2bc <fail>
    2d14:	fe209ce3          	bne	ra,sp,2d0c <bne_test+0x12c>
    2d18:	ffffd097          	auipc	ra,0xffffd
    2d1c:	594080e7          	jalr	1428(ra) # 2ac <update_test>
    2d20:	000f8067          	jr	t6

00002d24 <blt_test>:
    2d24:	00000513          	li	a0,0
    2d28:	00a62023          	sw	a0,0(a2)
    2d2c:	00200193          	li	gp,2
    2d30:	00000093          	li	ra,0
    2d34:	00100113          	li	sp,1
    2d38:	0020c863          	blt	ra,sp,2d48 <blt_test+0x24>
    2d3c:	00300463          	beq	zero,gp,2d44 <blt_test+0x20>
    2d40:	d7cfd06f          	j	2bc <fail>
    2d44:	00301863          	bne	zero,gp,2d54 <blt_test+0x30>
    2d48:	fe20cee3          	blt	ra,sp,2d44 <blt_test+0x20>
    2d4c:	00300463          	beq	zero,gp,2d54 <blt_test+0x30>
    2d50:	d6cfd06f          	j	2bc <fail>
    2d54:	ffffd097          	auipc	ra,0xffffd
    2d58:	558080e7          	jalr	1368(ra) # 2ac <update_test>
    2d5c:	00300193          	li	gp,3
    2d60:	fff00093          	li	ra,-1
    2d64:	00100113          	li	sp,1
    2d68:	0020c863          	blt	ra,sp,2d78 <blt_test+0x54>
    2d6c:	00300463          	beq	zero,gp,2d74 <blt_test+0x50>
    2d70:	d4cfd06f          	j	2bc <fail>
    2d74:	00301863          	bne	zero,gp,2d84 <blt_test+0x60>
    2d78:	fe20cee3          	blt	ra,sp,2d74 <blt_test+0x50>
    2d7c:	00300463          	beq	zero,gp,2d84 <blt_test+0x60>
    2d80:	d3cfd06f          	j	2bc <fail>
    2d84:	ffffd097          	auipc	ra,0xffffd
    2d88:	528080e7          	jalr	1320(ra) # 2ac <update_test>
    2d8c:	00400193          	li	gp,4
    2d90:	ffe00093          	li	ra,-2
    2d94:	fff00113          	li	sp,-1
    2d98:	0020c863          	blt	ra,sp,2da8 <blt_test+0x84>
    2d9c:	00300463          	beq	zero,gp,2da4 <blt_test+0x80>
    2da0:	d1cfd06f          	j	2bc <fail>
    2da4:	00301863          	bne	zero,gp,2db4 <blt_test+0x90>
    2da8:	fe20cee3          	blt	ra,sp,2da4 <blt_test+0x80>
    2dac:	00300463          	beq	zero,gp,2db4 <blt_test+0x90>
    2db0:	d0cfd06f          	j	2bc <fail>
    2db4:	ffffd097          	auipc	ra,0xffffd
    2db8:	4f8080e7          	jalr	1272(ra) # 2ac <update_test>
    2dbc:	00500193          	li	gp,5
    2dc0:	00100093          	li	ra,1
    2dc4:	00000113          	li	sp,0
    2dc8:	0020c463          	blt	ra,sp,2dd0 <blt_test+0xac>
    2dcc:	00301663          	bne	zero,gp,2dd8 <blt_test+0xb4>
    2dd0:	00300463          	beq	zero,gp,2dd8 <blt_test+0xb4>
    2dd4:	ce8fd06f          	j	2bc <fail>
    2dd8:	fe20cce3          	blt	ra,sp,2dd0 <blt_test+0xac>
    2ddc:	ffffd097          	auipc	ra,0xffffd
    2de0:	4d0080e7          	jalr	1232(ra) # 2ac <update_test>
    2de4:	00600193          	li	gp,6
    2de8:	00100093          	li	ra,1
    2dec:	fff00113          	li	sp,-1
    2df0:	0020c463          	blt	ra,sp,2df8 <blt_test+0xd4>
    2df4:	00301663          	bne	zero,gp,2e00 <blt_test+0xdc>
    2df8:	00300463          	beq	zero,gp,2e00 <blt_test+0xdc>
    2dfc:	cc0fd06f          	j	2bc <fail>
    2e00:	fe20cce3          	blt	ra,sp,2df8 <blt_test+0xd4>
    2e04:	ffffd097          	auipc	ra,0xffffd
    2e08:	4a8080e7          	jalr	1192(ra) # 2ac <update_test>
    2e0c:	00700193          	li	gp,7
    2e10:	fff00093          	li	ra,-1
    2e14:	ffe00113          	li	sp,-2
    2e18:	0020c463          	blt	ra,sp,2e20 <blt_test+0xfc>
    2e1c:	00301663          	bne	zero,gp,2e28 <blt_test+0x104>
    2e20:	00300463          	beq	zero,gp,2e28 <blt_test+0x104>
    2e24:	c98fd06f          	j	2bc <fail>
    2e28:	fe20cce3          	blt	ra,sp,2e20 <blt_test+0xfc>
    2e2c:	ffffd097          	auipc	ra,0xffffd
    2e30:	480080e7          	jalr	1152(ra) # 2ac <update_test>
    2e34:	00800193          	li	gp,8
    2e38:	00100093          	li	ra,1
    2e3c:	ffe00113          	li	sp,-2
    2e40:	0020c463          	blt	ra,sp,2e48 <blt_test+0x124>
    2e44:	00301663          	bne	zero,gp,2e50 <blt_test+0x12c>
    2e48:	00300463          	beq	zero,gp,2e50 <blt_test+0x12c>
    2e4c:	c70fd06f          	j	2bc <fail>
    2e50:	fe20cce3          	blt	ra,sp,2e48 <blt_test+0x124>
    2e54:	ffffd097          	auipc	ra,0xffffd
    2e58:	458080e7          	jalr	1112(ra) # 2ac <update_test>
    2e5c:	000f8067          	jr	t6

00002e60 <bge_test>:
    2e60:	00000513          	li	a0,0
    2e64:	00a62023          	sw	a0,0(a2)
    2e68:	00200193          	li	gp,2
    2e6c:	00000093          	li	ra,0
    2e70:	00000113          	li	sp,0
    2e74:	0020d863          	bge	ra,sp,2e84 <bge_test+0x24>
    2e78:	00300463          	beq	zero,gp,2e80 <bge_test+0x20>
    2e7c:	c40fd06f          	j	2bc <fail>
    2e80:	00301863          	bne	zero,gp,2e90 <bge_test+0x30>
    2e84:	fe20dee3          	bge	ra,sp,2e80 <bge_test+0x20>
    2e88:	00300463          	beq	zero,gp,2e90 <bge_test+0x30>
    2e8c:	c30fd06f          	j	2bc <fail>
    2e90:	ffffd097          	auipc	ra,0xffffd
    2e94:	41c080e7          	jalr	1052(ra) # 2ac <update_test>
    2e98:	00300193          	li	gp,3
    2e9c:	00100093          	li	ra,1
    2ea0:	00100113          	li	sp,1
    2ea4:	0020d863          	bge	ra,sp,2eb4 <bge_test+0x54>
    2ea8:	00300463          	beq	zero,gp,2eb0 <bge_test+0x50>
    2eac:	c10fd06f          	j	2bc <fail>
    2eb0:	00301863          	bne	zero,gp,2ec0 <bge_test+0x60>
    2eb4:	fe20dee3          	bge	ra,sp,2eb0 <bge_test+0x50>
    2eb8:	00300463          	beq	zero,gp,2ec0 <bge_test+0x60>
    2ebc:	c00fd06f          	j	2bc <fail>
    2ec0:	ffffd097          	auipc	ra,0xffffd
    2ec4:	3ec080e7          	jalr	1004(ra) # 2ac <update_test>
    2ec8:	00400193          	li	gp,4
    2ecc:	fff00093          	li	ra,-1
    2ed0:	fff00113          	li	sp,-1
    2ed4:	0020d863          	bge	ra,sp,2ee4 <bge_test+0x84>
    2ed8:	00300463          	beq	zero,gp,2ee0 <bge_test+0x80>
    2edc:	be0fd06f          	j	2bc <fail>
    2ee0:	00301863          	bne	zero,gp,2ef0 <bge_test+0x90>
    2ee4:	fe20dee3          	bge	ra,sp,2ee0 <bge_test+0x80>
    2ee8:	00300463          	beq	zero,gp,2ef0 <bge_test+0x90>
    2eec:	bd0fd06f          	j	2bc <fail>
    2ef0:	ffffd097          	auipc	ra,0xffffd
    2ef4:	3bc080e7          	jalr	956(ra) # 2ac <update_test>
    2ef8:	00500193          	li	gp,5
    2efc:	00100093          	li	ra,1
    2f00:	00000113          	li	sp,0
    2f04:	0020d863          	bge	ra,sp,2f14 <bge_test+0xb4>
    2f08:	00300463          	beq	zero,gp,2f10 <bge_test+0xb0>
    2f0c:	bb0fd06f          	j	2bc <fail>
    2f10:	00301863          	bne	zero,gp,2f20 <bge_test+0xc0>
    2f14:	fe20dee3          	bge	ra,sp,2f10 <bge_test+0xb0>
    2f18:	00300463          	beq	zero,gp,2f20 <bge_test+0xc0>
    2f1c:	ba0fd06f          	j	2bc <fail>
    2f20:	ffffd097          	auipc	ra,0xffffd
    2f24:	38c080e7          	jalr	908(ra) # 2ac <update_test>
    2f28:	00600193          	li	gp,6
    2f2c:	00100093          	li	ra,1
    2f30:	fff00113          	li	sp,-1
    2f34:	0020d863          	bge	ra,sp,2f44 <bge_test+0xe4>
    2f38:	00300463          	beq	zero,gp,2f40 <bge_test+0xe0>
    2f3c:	b80fd06f          	j	2bc <fail>
    2f40:	00301863          	bne	zero,gp,2f50 <bge_test+0xf0>
    2f44:	fe20dee3          	bge	ra,sp,2f40 <bge_test+0xe0>
    2f48:	00300463          	beq	zero,gp,2f50 <bge_test+0xf0>
    2f4c:	b70fd06f          	j	2bc <fail>
    2f50:	ffffd097          	auipc	ra,0xffffd
    2f54:	35c080e7          	jalr	860(ra) # 2ac <update_test>
    2f58:	00700193          	li	gp,7
    2f5c:	fff00093          	li	ra,-1
    2f60:	ffe00113          	li	sp,-2
    2f64:	0020d863          	bge	ra,sp,2f74 <bge_test+0x114>
    2f68:	00300463          	beq	zero,gp,2f70 <bge_test+0x110>
    2f6c:	b50fd06f          	j	2bc <fail>
    2f70:	00301863          	bne	zero,gp,2f80 <bge_test+0x120>
    2f74:	fe20dee3          	bge	ra,sp,2f70 <bge_test+0x110>
    2f78:	00300463          	beq	zero,gp,2f80 <bge_test+0x120>
    2f7c:	b40fd06f          	j	2bc <fail>
    2f80:	ffffd097          	auipc	ra,0xffffd
    2f84:	32c080e7          	jalr	812(ra) # 2ac <update_test>
    2f88:	00800193          	li	gp,8
    2f8c:	00000093          	li	ra,0
    2f90:	00100113          	li	sp,1
    2f94:	0020d463          	bge	ra,sp,2f9c <bge_test+0x13c>
    2f98:	00301663          	bne	zero,gp,2fa4 <bge_test+0x144>
    2f9c:	00300463          	beq	zero,gp,2fa4 <bge_test+0x144>
    2fa0:	b1cfd06f          	j	2bc <fail>
    2fa4:	fe20dce3          	bge	ra,sp,2f9c <bge_test+0x13c>
    2fa8:	ffffd097          	auipc	ra,0xffffd
    2fac:	304080e7          	jalr	772(ra) # 2ac <update_test>
    2fb0:	00900193          	li	gp,9
    2fb4:	fff00093          	li	ra,-1
    2fb8:	00100113          	li	sp,1
    2fbc:	0020d463          	bge	ra,sp,2fc4 <bge_test+0x164>
    2fc0:	00301663          	bne	zero,gp,2fcc <bge_test+0x16c>
    2fc4:	00300463          	beq	zero,gp,2fcc <bge_test+0x16c>
    2fc8:	af4fd06f          	j	2bc <fail>
    2fcc:	fe20dce3          	bge	ra,sp,2fc4 <bge_test+0x164>
    2fd0:	ffffd097          	auipc	ra,0xffffd
    2fd4:	2dc080e7          	jalr	732(ra) # 2ac <update_test>
    2fd8:	00a00193          	li	gp,10
    2fdc:	ffe00093          	li	ra,-2
    2fe0:	fff00113          	li	sp,-1
    2fe4:	0020d463          	bge	ra,sp,2fec <bge_test+0x18c>
    2fe8:	00301663          	bne	zero,gp,2ff4 <bge_test+0x194>
    2fec:	00300463          	beq	zero,gp,2ff4 <bge_test+0x194>
    2ff0:	accfd06f          	j	2bc <fail>
    2ff4:	fe20dce3          	bge	ra,sp,2fec <bge_test+0x18c>
    2ff8:	ffffd097          	auipc	ra,0xffffd
    2ffc:	2b4080e7          	jalr	692(ra) # 2ac <update_test>
    3000:	00b00193          	li	gp,11
    3004:	ffe00093          	li	ra,-2
    3008:	00100113          	li	sp,1
    300c:	0020d463          	bge	ra,sp,3014 <bge_test+0x1b4>
    3010:	00301663          	bne	zero,gp,301c <bge_test+0x1bc>
    3014:	00300463          	beq	zero,gp,301c <bge_test+0x1bc>
    3018:	aa4fd06f          	j	2bc <fail>
    301c:	fe20dce3          	bge	ra,sp,3014 <bge_test+0x1b4>
    3020:	ffffd097          	auipc	ra,0xffffd
    3024:	28c080e7          	jalr	652(ra) # 2ac <update_test>
    3028:	000f8067          	jr	t6

0000302c <bltu_test>:
    302c:	00000513          	li	a0,0
    3030:	00a62023          	sw	a0,0(a2)
    3034:	00200193          	li	gp,2
    3038:	00000093          	li	ra,0
    303c:	00100113          	li	sp,1
    3040:	0020e863          	bltu	ra,sp,3050 <bltu_test+0x24>
    3044:	00300463          	beq	zero,gp,304c <bltu_test+0x20>
    3048:	a74fd06f          	j	2bc <fail>
    304c:	00301863          	bne	zero,gp,305c <bltu_test+0x30>
    3050:	fe20eee3          	bltu	ra,sp,304c <bltu_test+0x20>
    3054:	00300463          	beq	zero,gp,305c <bltu_test+0x30>
    3058:	a64fd06f          	j	2bc <fail>
    305c:	ffffd097          	auipc	ra,0xffffd
    3060:	250080e7          	jalr	592(ra) # 2ac <update_test>
    3064:	00300193          	li	gp,3
    3068:	ffe00093          	li	ra,-2
    306c:	fff00113          	li	sp,-1
    3070:	0020e863          	bltu	ra,sp,3080 <bltu_test+0x54>
    3074:	00300463          	beq	zero,gp,307c <bltu_test+0x50>
    3078:	a44fd06f          	j	2bc <fail>
    307c:	00301863          	bne	zero,gp,308c <bltu_test+0x60>
    3080:	fe20eee3          	bltu	ra,sp,307c <bltu_test+0x50>
    3084:	00300463          	beq	zero,gp,308c <bltu_test+0x60>
    3088:	a34fd06f          	j	2bc <fail>
    308c:	ffffd097          	auipc	ra,0xffffd
    3090:	220080e7          	jalr	544(ra) # 2ac <update_test>
    3094:	00400193          	li	gp,4
    3098:	00000093          	li	ra,0
    309c:	fff00113          	li	sp,-1
    30a0:	0020e863          	bltu	ra,sp,30b0 <bltu_test+0x84>
    30a4:	00300463          	beq	zero,gp,30ac <bltu_test+0x80>
    30a8:	a14fd06f          	j	2bc <fail>
    30ac:	00301863          	bne	zero,gp,30bc <bltu_test+0x90>
    30b0:	fe20eee3          	bltu	ra,sp,30ac <bltu_test+0x80>
    30b4:	00300463          	beq	zero,gp,30bc <bltu_test+0x90>
    30b8:	a04fd06f          	j	2bc <fail>
    30bc:	ffffd097          	auipc	ra,0xffffd
    30c0:	1f0080e7          	jalr	496(ra) # 2ac <update_test>
    30c4:	00500193          	li	gp,5
    30c8:	00100093          	li	ra,1
    30cc:	00000113          	li	sp,0
    30d0:	0020e463          	bltu	ra,sp,30d8 <bltu_test+0xac>
    30d4:	00301663          	bne	zero,gp,30e0 <bltu_test+0xb4>
    30d8:	00300463          	beq	zero,gp,30e0 <bltu_test+0xb4>
    30dc:	9e0fd06f          	j	2bc <fail>
    30e0:	fe20ece3          	bltu	ra,sp,30d8 <bltu_test+0xac>
    30e4:	ffffd097          	auipc	ra,0xffffd
    30e8:	1c8080e7          	jalr	456(ra) # 2ac <update_test>
    30ec:	00600193          	li	gp,6
    30f0:	fff00093          	li	ra,-1
    30f4:	ffe00113          	li	sp,-2
    30f8:	0020e463          	bltu	ra,sp,3100 <bltu_test+0xd4>
    30fc:	00301663          	bne	zero,gp,3108 <bltu_test+0xdc>
    3100:	00300463          	beq	zero,gp,3108 <bltu_test+0xdc>
    3104:	9b8fd06f          	j	2bc <fail>
    3108:	fe20ece3          	bltu	ra,sp,3100 <bltu_test+0xd4>
    310c:	ffffd097          	auipc	ra,0xffffd
    3110:	1a0080e7          	jalr	416(ra) # 2ac <update_test>
    3114:	00700193          	li	gp,7
    3118:	fff00093          	li	ra,-1
    311c:	00000113          	li	sp,0
    3120:	0020e463          	bltu	ra,sp,3128 <bltu_test+0xfc>
    3124:	00301663          	bne	zero,gp,3130 <bltu_test+0x104>
    3128:	00300463          	beq	zero,gp,3130 <bltu_test+0x104>
    312c:	990fd06f          	j	2bc <fail>
    3130:	fe20ece3          	bltu	ra,sp,3128 <bltu_test+0xfc>
    3134:	ffffd097          	auipc	ra,0xffffd
    3138:	178080e7          	jalr	376(ra) # 2ac <update_test>
    313c:	00800193          	li	gp,8
    3140:	800000b7          	lui	ra,0x80000
    3144:	80000137          	lui	sp,0x80000
    3148:	fff10113          	addi	sp,sp,-1 # 7fffffff <SSEG+0x6ef3ffff>
    314c:	0020e463          	bltu	ra,sp,3154 <bltu_test+0x128>
    3150:	00301663          	bne	zero,gp,315c <bltu_test+0x130>
    3154:	00300463          	beq	zero,gp,315c <bltu_test+0x130>
    3158:	964fd06f          	j	2bc <fail>
    315c:	fe20ece3          	bltu	ra,sp,3154 <bltu_test+0x128>
    3160:	ffffd097          	auipc	ra,0xffffd
    3164:	14c080e7          	jalr	332(ra) # 2ac <update_test>
    3168:	000f8067          	jr	t6

0000316c <bgeu_test>:
    316c:	00000513          	li	a0,0
    3170:	00a62023          	sw	a0,0(a2)
    3174:	00200193          	li	gp,2
    3178:	00000093          	li	ra,0
    317c:	00000113          	li	sp,0
    3180:	0020f863          	bgeu	ra,sp,3190 <bgeu_test+0x24>
    3184:	00300463          	beq	zero,gp,318c <bgeu_test+0x20>
    3188:	934fd06f          	j	2bc <fail>
    318c:	00301863          	bne	zero,gp,319c <bgeu_test+0x30>
    3190:	fe20fee3          	bgeu	ra,sp,318c <bgeu_test+0x20>
    3194:	00300463          	beq	zero,gp,319c <bgeu_test+0x30>
    3198:	924fd06f          	j	2bc <fail>
    319c:	ffffd097          	auipc	ra,0xffffd
    31a0:	110080e7          	jalr	272(ra) # 2ac <update_test>
    31a4:	00300193          	li	gp,3
    31a8:	00100093          	li	ra,1
    31ac:	00100113          	li	sp,1
    31b0:	0020f863          	bgeu	ra,sp,31c0 <bgeu_test+0x54>
    31b4:	00300463          	beq	zero,gp,31bc <bgeu_test+0x50>
    31b8:	904fd06f          	j	2bc <fail>
    31bc:	00301863          	bne	zero,gp,31cc <bgeu_test+0x60>
    31c0:	fe20fee3          	bgeu	ra,sp,31bc <bgeu_test+0x50>
    31c4:	00300463          	beq	zero,gp,31cc <bgeu_test+0x60>
    31c8:	8f4fd06f          	j	2bc <fail>
    31cc:	ffffd097          	auipc	ra,0xffffd
    31d0:	0e0080e7          	jalr	224(ra) # 2ac <update_test>
    31d4:	00400193          	li	gp,4
    31d8:	fff00093          	li	ra,-1
    31dc:	fff00113          	li	sp,-1
    31e0:	0020f863          	bgeu	ra,sp,31f0 <bgeu_test+0x84>
    31e4:	00300463          	beq	zero,gp,31ec <bgeu_test+0x80>
    31e8:	8d4fd06f          	j	2bc <fail>
    31ec:	00301863          	bne	zero,gp,31fc <bgeu_test+0x90>
    31f0:	fe20fee3          	bgeu	ra,sp,31ec <bgeu_test+0x80>
    31f4:	00300463          	beq	zero,gp,31fc <bgeu_test+0x90>
    31f8:	8c4fd06f          	j	2bc <fail>
    31fc:	ffffd097          	auipc	ra,0xffffd
    3200:	0b0080e7          	jalr	176(ra) # 2ac <update_test>
    3204:	00500193          	li	gp,5
    3208:	00100093          	li	ra,1
    320c:	00000113          	li	sp,0
    3210:	0020f863          	bgeu	ra,sp,3220 <bgeu_test+0xb4>
    3214:	00300463          	beq	zero,gp,321c <bgeu_test+0xb0>
    3218:	8a4fd06f          	j	2bc <fail>
    321c:	00301863          	bne	zero,gp,322c <bgeu_test+0xc0>
    3220:	fe20fee3          	bgeu	ra,sp,321c <bgeu_test+0xb0>
    3224:	00300463          	beq	zero,gp,322c <bgeu_test+0xc0>
    3228:	894fd06f          	j	2bc <fail>
    322c:	ffffd097          	auipc	ra,0xffffd
    3230:	080080e7          	jalr	128(ra) # 2ac <update_test>
    3234:	00600193          	li	gp,6
    3238:	fff00093          	li	ra,-1
    323c:	ffe00113          	li	sp,-2
    3240:	0020f863          	bgeu	ra,sp,3250 <bgeu_test+0xe4>
    3244:	00300463          	beq	zero,gp,324c <bgeu_test+0xe0>
    3248:	874fd06f          	j	2bc <fail>
    324c:	00301863          	bne	zero,gp,325c <bgeu_test+0xf0>
    3250:	fe20fee3          	bgeu	ra,sp,324c <bgeu_test+0xe0>
    3254:	00300463          	beq	zero,gp,325c <bgeu_test+0xf0>
    3258:	864fd06f          	j	2bc <fail>
    325c:	ffffd097          	auipc	ra,0xffffd
    3260:	050080e7          	jalr	80(ra) # 2ac <update_test>
    3264:	00700193          	li	gp,7
    3268:	fff00093          	li	ra,-1
    326c:	00000113          	li	sp,0
    3270:	0020f863          	bgeu	ra,sp,3280 <bgeu_test+0x114>
    3274:	00300463          	beq	zero,gp,327c <bgeu_test+0x110>
    3278:	844fd06f          	j	2bc <fail>
    327c:	00301863          	bne	zero,gp,328c <bgeu_test+0x120>
    3280:	fe20fee3          	bgeu	ra,sp,327c <bgeu_test+0x110>
    3284:	00300463          	beq	zero,gp,328c <bgeu_test+0x120>
    3288:	834fd06f          	j	2bc <fail>
    328c:	ffffd097          	auipc	ra,0xffffd
    3290:	020080e7          	jalr	32(ra) # 2ac <update_test>
    3294:	00800193          	li	gp,8
    3298:	00000093          	li	ra,0
    329c:	00100113          	li	sp,1
    32a0:	0020f463          	bgeu	ra,sp,32a8 <bgeu_test+0x13c>
    32a4:	00301663          	bne	zero,gp,32b0 <bgeu_test+0x144>
    32a8:	00300463          	beq	zero,gp,32b0 <bgeu_test+0x144>
    32ac:	810fd06f          	j	2bc <fail>
    32b0:	fe20fce3          	bgeu	ra,sp,32a8 <bgeu_test+0x13c>
    32b4:	ffffd097          	auipc	ra,0xffffd
    32b8:	ff8080e7          	jalr	-8(ra) # 2ac <update_test>
    32bc:	00900193          	li	gp,9
    32c0:	ffe00093          	li	ra,-2
    32c4:	fff00113          	li	sp,-1
    32c8:	0020f463          	bgeu	ra,sp,32d0 <bgeu_test+0x164>
    32cc:	00301663          	bne	zero,gp,32d8 <bgeu_test+0x16c>
    32d0:	00300463          	beq	zero,gp,32d8 <bgeu_test+0x16c>
    32d4:	fe9fc06f          	j	2bc <fail>
    32d8:	fe20fce3          	bgeu	ra,sp,32d0 <bgeu_test+0x164>
    32dc:	ffffd097          	auipc	ra,0xffffd
    32e0:	fd0080e7          	jalr	-48(ra) # 2ac <update_test>
    32e4:	00a00193          	li	gp,10
    32e8:	00000093          	li	ra,0
    32ec:	fff00113          	li	sp,-1
    32f0:	0020f463          	bgeu	ra,sp,32f8 <bgeu_test+0x18c>
    32f4:	00301663          	bne	zero,gp,3300 <bgeu_test+0x194>
    32f8:	00300463          	beq	zero,gp,3300 <bgeu_test+0x194>
    32fc:	fc1fc06f          	j	2bc <fail>
    3300:	fe20fce3          	bgeu	ra,sp,32f8 <bgeu_test+0x18c>
    3304:	ffffd097          	auipc	ra,0xffffd
    3308:	fa8080e7          	jalr	-88(ra) # 2ac <update_test>
    330c:	00b00193          	li	gp,11
    3310:	800000b7          	lui	ra,0x80000
    3314:	fff08093          	addi	ra,ra,-1 # 7fffffff <SSEG+0x6ef3ffff>
    3318:	80000137          	lui	sp,0x80000
    331c:	0020f463          	bgeu	ra,sp,3324 <bgeu_test+0x1b8>
    3320:	00301663          	bne	zero,gp,332c <bgeu_test+0x1c0>
    3324:	00300463          	beq	zero,gp,332c <bgeu_test+0x1c0>
    3328:	f95fc06f          	j	2bc <fail>
    332c:	fe20fce3          	bgeu	ra,sp,3324 <bgeu_test+0x1b8>
    3330:	ffffd097          	auipc	ra,0xffffd
    3334:	f7c080e7          	jalr	-132(ra) # 2ac <update_test>
    3338:	000f8067          	jr	t6

0000333c <auipc_test>:
    333c:	00000513          	li	a0,0
    3340:	00a62023          	sw	a0,0(a2)
    3344:	00000013          	nop
    3348:	00002e17          	auipc	t3,0x2
    334c:	71ce0e13          	addi	t3,t3,1820 # 5a64 <__global_pointer$+0x12a4>
    3350:	00400def          	jal	s11,3354 <auipc_test+0x18>
    3354:	41be0e33          	sub	t3,t3,s11
    3358:	00002eb7          	lui	t4,0x2
    335c:	710e8e93          	addi	t4,t4,1808 # 2710 <slti_test+0x1e0>
    3360:	00200193          	li	gp,2
    3364:	01de0463          	beq	t3,t4,336c <auipc_test+0x30>
    3368:	f55fc06f          	j	2bc <fail>
    336c:	ffffd097          	auipc	ra,0xffffd
    3370:	f40080e7          	jalr	-192(ra) # 2ac <update_test>
    3374:	00000013          	nop
    3378:	ffffee17          	auipc	t3,0xffffe
    337c:	8fce0e13          	addi	t3,t3,-1796 # c74 <sll_test+0x17c>
    3380:	00400def          	jal	s11,3384 <auipc_test+0x48>
    3384:	41be0e33          	sub	t3,t3,s11
    3388:	ffffeeb7          	lui	t4,0xffffe
    338c:	8f0e8e93          	addi	t4,t4,-1808 # ffffd8f0 <SSEG+0xeef3d8f0>
    3390:	00300193          	li	gp,3
    3394:	01de0463          	beq	t3,t4,339c <auipc_test+0x60>
    3398:	f25fc06f          	j	2bc <fail>
    339c:	ffffd097          	auipc	ra,0xffffd
    33a0:	f10080e7          	jalr	-240(ra) # 2ac <update_test>
    33a4:	000f8067          	jr	t6

000033a8 <lui_test>:
    33a8:	00000513          	li	a0,0
    33ac:	00a62023          	sw	a0,0(a2)
    33b0:	000000b7          	lui	ra,0x0
    33b4:	00000e93          	li	t4,0
    33b8:	00200193          	li	gp,2
    33bc:	01d08463          	beq	ra,t4,33c4 <lui_test+0x1c>
    33c0:	efdfc06f          	j	2bc <fail>
    33c4:	ffffd097          	auipc	ra,0xffffd
    33c8:	ee8080e7          	jalr	-280(ra) # 2ac <update_test>
    33cc:	fffff0b7          	lui	ra,0xfffff
    33d0:	4010d093          	srai	ra,ra,0x1
    33d4:	80000e93          	li	t4,-2048
    33d8:	00300193          	li	gp,3
    33dc:	01d08463          	beq	ra,t4,33e4 <lui_test+0x3c>
    33e0:	eddfc06f          	j	2bc <fail>
    33e4:	ffffd097          	auipc	ra,0xffffd
    33e8:	ec8080e7          	jalr	-312(ra) # 2ac <update_test>
    33ec:	7ffff0b7          	lui	ra,0x7ffff
    33f0:	4140d093          	srai	ra,ra,0x14
    33f4:	7ff00e93          	li	t4,2047
    33f8:	00400193          	li	gp,4
    33fc:	01d08463          	beq	ra,t4,3404 <lui_test+0x5c>
    3400:	ebdfc06f          	j	2bc <fail>
    3404:	ffffd097          	auipc	ra,0xffffd
    3408:	ea8080e7          	jalr	-344(ra) # 2ac <update_test>
    340c:	800000b7          	lui	ra,0x80000
    3410:	4140d093          	srai	ra,ra,0x14
    3414:	80000e93          	li	t4,-2048
    3418:	00500193          	li	gp,5
    341c:	01d08463          	beq	ra,t4,3424 <lui_test+0x7c>
    3420:	e9dfc06f          	j	2bc <fail>
    3424:	ffffd097          	auipc	ra,0xffffd
    3428:	e88080e7          	jalr	-376(ra) # 2ac <update_test>
    342c:	80000037          	lui	zero,0x80000
    3430:	00000e93          	li	t4,0
    3434:	00600193          	li	gp,6
    3438:	01d00463          	beq	zero,t4,3440 <lui_test+0x98>
    343c:	e81fc06f          	j	2bc <fail>
    3440:	ffffd097          	auipc	ra,0xffffd
    3444:	e6c080e7          	jalr	-404(ra) # 2ac <update_test>
    3448:	000f8067          	jr	t6

0000344c <jal_test>:
    344c:	00000513          	li	a0,0
    3450:	00a62023          	sw	a0,0(a2)
    3454:	00200193          	li	gp,2
    3458:	00000093          	li	ra,0
    345c:	0100026f          	jal	tp,346c <target_2>

00003460 <linkaddr_2>:
    3460:	00000013          	nop
    3464:	00000013          	nop
    3468:	e55fc06f          	j	2bc <fail>

0000346c <target_2>:
    346c:	00000117          	auipc	sp,0x0
    3470:	ff410113          	addi	sp,sp,-12 # 3460 <linkaddr_2>
    3474:	00410463          	beq	sp,tp,347c <target_2+0x10>
    3478:	e45fc06f          	j	2bc <fail>
    347c:	ffffd097          	auipc	ra,0xffffd
    3480:	e30080e7          	jalr	-464(ra) # 2ac <update_test>
    3484:	00100093          	li	ra,1
    3488:	0140006f          	j	349c <target_2+0x30>
    348c:	00108093          	addi	ra,ra,1
    3490:	00108093          	addi	ra,ra,1
    3494:	00108093          	addi	ra,ra,1
    3498:	00108093          	addi	ra,ra,1
    349c:	00108093          	addi	ra,ra,1
    34a0:	00108093          	addi	ra,ra,1
    34a4:	00300e93          	li	t4,3
    34a8:	00300193          	li	gp,3
    34ac:	01d08463          	beq	ra,t4,34b4 <target_2+0x48>
    34b0:	e0dfc06f          	j	2bc <fail>
    34b4:	ffffd097          	auipc	ra,0xffffd
    34b8:	df8080e7          	jalr	-520(ra) # 2ac <update_test>
    34bc:	000f8067          	jr	t6

000034c0 <jalr_test>:
    34c0:	00000513          	li	a0,0
    34c4:	00a62023          	sw	a0,0(a2)

000034c8 <test_2a>:
    34c8:	00200193          	li	gp,2
    34cc:	00000293          	li	t0,0
    34d0:	00000317          	auipc	t1,0x0
    34d4:	01030313          	addi	t1,t1,16 # 34e0 <target_2a>
    34d8:	000302e7          	jalr	t0,t1

000034dc <linkaddr_2a>:
    34dc:	de1fc06f          	j	2bc <fail>

000034e0 <target_2a>:
    34e0:	00000317          	auipc	t1,0x0
    34e4:	ffc30313          	addi	t1,t1,-4 # 34dc <linkaddr_2a>
    34e8:	00628463          	beq	t0,t1,34f0 <target_2a+0x10>
    34ec:	dd1fc06f          	j	2bc <fail>
    34f0:	ffffd097          	auipc	ra,0xffffd
    34f4:	dbc080e7          	jalr	-580(ra) # 2ac <update_test>
    34f8:	00400193          	li	gp,4
    34fc:	00000213          	li	tp,0
    3500:	00000317          	auipc	t1,0x0
    3504:	01430313          	addi	t1,t1,20 # 3514 <target_2a+0x34>
    3508:	000309e7          	jalr	s3,t1
    350c:	00300463          	beq	zero,gp,3514 <target_2a+0x34>
    3510:	dadfc06f          	j	2bc <fail>
    3514:	00120213          	addi	tp,tp,1 # 1 <int_setup+0x1>
    3518:	00200293          	li	t0,2
    351c:	fe5212e3          	bne	tp,t0,3500 <target_2a+0x20>
    3520:	ffffd097          	auipc	ra,0xffffd
    3524:	d8c080e7          	jalr	-628(ra) # 2ac <update_test>
    3528:	00500193          	li	gp,5
    352c:	00000213          	li	tp,0
    3530:	00000317          	auipc	t1,0x0
    3534:	01830313          	addi	t1,t1,24 # 3548 <target_2a+0x68>
    3538:	00000013          	nop
    353c:	000309e7          	jalr	s3,t1
    3540:	00300463          	beq	zero,gp,3548 <target_2a+0x68>
    3544:	d79fc06f          	j	2bc <fail>
    3548:	00120213          	addi	tp,tp,1 # 1 <int_setup+0x1>
    354c:	00200293          	li	t0,2
    3550:	fe5210e3          	bne	tp,t0,3530 <target_2a+0x50>
    3554:	ffffd097          	auipc	ra,0xffffd
    3558:	d58080e7          	jalr	-680(ra) # 2ac <update_test>
    355c:	00600193          	li	gp,6
    3560:	00000213          	li	tp,0
    3564:	00000317          	auipc	t1,0x0
    3568:	01c30313          	addi	t1,t1,28 # 3580 <target_2a+0xa0>
    356c:	00000013          	nop
    3570:	00000013          	nop
    3574:	000309e7          	jalr	s3,t1
    3578:	00300463          	beq	zero,gp,3580 <target_2a+0xa0>
    357c:	d41fc06f          	j	2bc <fail>
    3580:	00120213          	addi	tp,tp,1 # 1 <int_setup+0x1>
    3584:	00200293          	li	t0,2
    3588:	fc521ee3          	bne	tp,t0,3564 <target_2a+0x84>
    358c:	ffffd097          	auipc	ra,0xffffd
    3590:	d20080e7          	jalr	-736(ra) # 2ac <update_test>
    3594:	000f8067          	jr	t6

00003598 <lh_test>:
    3598:	00000513          	li	a0,0
    359c:	00a62023          	sw	a0,0(a2)
    35a0:	00001097          	auipc	ra,0x1
    35a4:	a5808093          	addi	ra,ra,-1448 # 3ff8 <tdat1lh>
    35a8:	00009f03          	lh	t5,0(ra)
    35ac:	0ff00e93          	li	t4,255
    35b0:	00200193          	li	gp,2
    35b4:	01df0463          	beq	t5,t4,35bc <lh_test+0x24>
    35b8:	d05fc06f          	j	2bc <fail>
    35bc:	ffffd097          	auipc	ra,0xffffd
    35c0:	cf0080e7          	jalr	-784(ra) # 2ac <update_test>
    35c4:	00001097          	auipc	ra,0x1
    35c8:	a3408093          	addi	ra,ra,-1484 # 3ff8 <tdat1lh>
    35cc:	00209f03          	lh	t5,2(ra)
    35d0:	f0000e93          	li	t4,-256
    35d4:	00300193          	li	gp,3
    35d8:	01df0463          	beq	t5,t4,35e0 <lh_test+0x48>
    35dc:	ce1fc06f          	j	2bc <fail>
    35e0:	ffffd097          	auipc	ra,0xffffd
    35e4:	ccc080e7          	jalr	-820(ra) # 2ac <update_test>
    35e8:	00001097          	auipc	ra,0x1
    35ec:	a1008093          	addi	ra,ra,-1520 # 3ff8 <tdat1lh>
    35f0:	00409f03          	lh	t5,4(ra)
    35f4:	00001eb7          	lui	t4,0x1
    35f8:	ff0e8e93          	addi	t4,t4,-16 # ff0 <srl_test+0x250>
    35fc:	00400193          	li	gp,4
    3600:	01df0463          	beq	t5,t4,3608 <lh_test+0x70>
    3604:	cb9fc06f          	j	2bc <fail>
    3608:	ffffd097          	auipc	ra,0xffffd
    360c:	ca4080e7          	jalr	-860(ra) # 2ac <update_test>
    3610:	00001097          	auipc	ra,0x1
    3614:	9e808093          	addi	ra,ra,-1560 # 3ff8 <tdat1lh>
    3618:	00609f03          	lh	t5,6(ra)
    361c:	fffffeb7          	lui	t4,0xfffff
    3620:	00fe8e93          	addi	t4,t4,15 # fffff00f <SSEG+0xeef3f00f>
    3624:	00500193          	li	gp,5
    3628:	01df0463          	beq	t5,t4,3630 <lh_test+0x98>
    362c:	c91fc06f          	j	2bc <fail>
    3630:	ffffd097          	auipc	ra,0xffffd
    3634:	c7c080e7          	jalr	-900(ra) # 2ac <update_test>
    3638:	00001097          	auipc	ra,0x1
    363c:	9c608093          	addi	ra,ra,-1594 # 3ffe <tdat4lh>
    3640:	ffa09f03          	lh	t5,-6(ra)
    3644:	0ff00e93          	li	t4,255
    3648:	00600193          	li	gp,6
    364c:	01df0463          	beq	t5,t4,3654 <lh_test+0xbc>
    3650:	c6dfc06f          	j	2bc <fail>
    3654:	ffffd097          	auipc	ra,0xffffd
    3658:	c58080e7          	jalr	-936(ra) # 2ac <update_test>
    365c:	00001097          	auipc	ra,0x1
    3660:	9a208093          	addi	ra,ra,-1630 # 3ffe <tdat4lh>
    3664:	ffc09f03          	lh	t5,-4(ra)
    3668:	f0000e93          	li	t4,-256
    366c:	00700193          	li	gp,7
    3670:	01df0463          	beq	t5,t4,3678 <lh_test+0xe0>
    3674:	c49fc06f          	j	2bc <fail>
    3678:	ffffd097          	auipc	ra,0xffffd
    367c:	c34080e7          	jalr	-972(ra) # 2ac <update_test>
    3680:	00001097          	auipc	ra,0x1
    3684:	97e08093          	addi	ra,ra,-1666 # 3ffe <tdat4lh>
    3688:	ffe09f03          	lh	t5,-2(ra)
    368c:	00001eb7          	lui	t4,0x1
    3690:	ff0e8e93          	addi	t4,t4,-16 # ff0 <srl_test+0x250>
    3694:	00800193          	li	gp,8
    3698:	01df0463          	beq	t5,t4,36a0 <lh_test+0x108>
    369c:	c21fc06f          	j	2bc <fail>
    36a0:	ffffd097          	auipc	ra,0xffffd
    36a4:	c0c080e7          	jalr	-1012(ra) # 2ac <update_test>
    36a8:	00001097          	auipc	ra,0x1
    36ac:	95608093          	addi	ra,ra,-1706 # 3ffe <tdat4lh>
    36b0:	00009f03          	lh	t5,0(ra)
    36b4:	fffffeb7          	lui	t4,0xfffff
    36b8:	00fe8e93          	addi	t4,t4,15 # fffff00f <SSEG+0xeef3f00f>
    36bc:	00900193          	li	gp,9
    36c0:	01df0463          	beq	t5,t4,36c8 <lh_test+0x130>
    36c4:	bf9fc06f          	j	2bc <fail>
    36c8:	ffffd097          	auipc	ra,0xffffd
    36cc:	be4080e7          	jalr	-1052(ra) # 2ac <update_test>
    36d0:	00001097          	auipc	ra,0x1
    36d4:	92808093          	addi	ra,ra,-1752 # 3ff8 <tdat1lh>
    36d8:	fe008093          	addi	ra,ra,-32
    36dc:	02009283          	lh	t0,32(ra)
    36e0:	0ff00e93          	li	t4,255
    36e4:	00a00193          	li	gp,10
    36e8:	01d28463          	beq	t0,t4,36f0 <lh_test+0x158>
    36ec:	bd1fc06f          	j	2bc <fail>
    36f0:	ffffd097          	auipc	ra,0xffffd
    36f4:	bbc080e7          	jalr	-1092(ra) # 2ac <update_test>
    36f8:	00001097          	auipc	ra,0x1
    36fc:	90008093          	addi	ra,ra,-1792 # 3ff8 <tdat1lh>
    3700:	ffb08093          	addi	ra,ra,-5
    3704:	00709283          	lh	t0,7(ra)
    3708:	f0000e93          	li	t4,-256
    370c:	00b00193          	li	gp,11
    3710:	01d28463          	beq	t0,t4,3718 <lh_test+0x180>
    3714:	ba9fc06f          	j	2bc <fail>
    3718:	ffffd097          	auipc	ra,0xffffd
    371c:	b94080e7          	jalr	-1132(ra) # 2ac <update_test>
    3720:	000f8067          	jr	t6

00003724 <lb_test>:
    3724:	00000513          	li	a0,0
    3728:	00a62023          	sw	a0,0(a2)
    372c:	00151513          	slli	a0,a0,0x1
    3730:	00001097          	auipc	ra,0x1
    3734:	8d008093          	addi	ra,ra,-1840 # 4000 <tdat1lb>
    3738:	00008f03          	lb	t5,0(ra)
    373c:	fff00e93          	li	t4,-1
    3740:	00200193          	li	gp,2
    3744:	01df0463          	beq	t5,t4,374c <lb_test+0x28>
    3748:	b75fc06f          	j	2bc <fail>
    374c:	ffffd097          	auipc	ra,0xffffd
    3750:	b60080e7          	jalr	-1184(ra) # 2ac <update_test>
    3754:	00001097          	auipc	ra,0x1
    3758:	8ac08093          	addi	ra,ra,-1876 # 4000 <tdat1lb>
    375c:	00108f03          	lb	t5,1(ra)
    3760:	00000e93          	li	t4,0
    3764:	00300193          	li	gp,3
    3768:	01df0463          	beq	t5,t4,3770 <lb_test+0x4c>
    376c:	b51fc06f          	j	2bc <fail>
    3770:	ffffd097          	auipc	ra,0xffffd
    3774:	b3c080e7          	jalr	-1220(ra) # 2ac <update_test>
    3778:	00001097          	auipc	ra,0x1
    377c:	88808093          	addi	ra,ra,-1912 # 4000 <tdat1lb>
    3780:	00208f03          	lb	t5,2(ra)
    3784:	ff000e93          	li	t4,-16
    3788:	00400193          	li	gp,4
    378c:	01df0463          	beq	t5,t4,3794 <lb_test+0x70>
    3790:	b2dfc06f          	j	2bc <fail>
    3794:	ffffd097          	auipc	ra,0xffffd
    3798:	b18080e7          	jalr	-1256(ra) # 2ac <update_test>
    379c:	00001097          	auipc	ra,0x1
    37a0:	86408093          	addi	ra,ra,-1948 # 4000 <tdat1lb>
    37a4:	00308f03          	lb	t5,3(ra)
    37a8:	00f00e93          	li	t4,15
    37ac:	00500193          	li	gp,5
    37b0:	01df0463          	beq	t5,t4,37b8 <lb_test+0x94>
    37b4:	b09fc06f          	j	2bc <fail>
    37b8:	ffffd097          	auipc	ra,0xffffd
    37bc:	af4080e7          	jalr	-1292(ra) # 2ac <update_test>
    37c0:	00001097          	auipc	ra,0x1
    37c4:	84308093          	addi	ra,ra,-1981 # 4003 <tdat4lb>
    37c8:	ffd08f03          	lb	t5,-3(ra)
    37cc:	fff00e93          	li	t4,-1
    37d0:	00600193          	li	gp,6
    37d4:	01df0463          	beq	t5,t4,37dc <lb_test+0xb8>
    37d8:	ae5fc06f          	j	2bc <fail>
    37dc:	ffffd097          	auipc	ra,0xffffd
    37e0:	ad0080e7          	jalr	-1328(ra) # 2ac <update_test>
    37e4:	00001097          	auipc	ra,0x1
    37e8:	81f08093          	addi	ra,ra,-2017 # 4003 <tdat4lb>
    37ec:	ffe08f03          	lb	t5,-2(ra)
    37f0:	00000e93          	li	t4,0
    37f4:	00700193          	li	gp,7
    37f8:	01df0463          	beq	t5,t4,3800 <lb_test+0xdc>
    37fc:	ac1fc06f          	j	2bc <fail>
    3800:	ffffd097          	auipc	ra,0xffffd
    3804:	aac080e7          	jalr	-1364(ra) # 2ac <update_test>
    3808:	00000097          	auipc	ra,0x0
    380c:	7fb08093          	addi	ra,ra,2043 # 4003 <tdat4lb>
    3810:	fff08f03          	lb	t5,-1(ra)
    3814:	ff000e93          	li	t4,-16
    3818:	00800193          	li	gp,8
    381c:	01df0463          	beq	t5,t4,3824 <lb_test+0x100>
    3820:	a9dfc06f          	j	2bc <fail>
    3824:	ffffd097          	auipc	ra,0xffffd
    3828:	a88080e7          	jalr	-1400(ra) # 2ac <update_test>
    382c:	00000097          	auipc	ra,0x0
    3830:	7d708093          	addi	ra,ra,2007 # 4003 <tdat4lb>
    3834:	00008f03          	lb	t5,0(ra)
    3838:	00f00e93          	li	t4,15
    383c:	00900193          	li	gp,9
    3840:	01df0463          	beq	t5,t4,3848 <lb_test+0x124>
    3844:	a79fc06f          	j	2bc <fail>
    3848:	ffffd097          	auipc	ra,0xffffd
    384c:	a64080e7          	jalr	-1436(ra) # 2ac <update_test>
    3850:	00000097          	auipc	ra,0x0
    3854:	7b008093          	addi	ra,ra,1968 # 4000 <tdat1lb>
    3858:	fe008093          	addi	ra,ra,-32
    385c:	02008283          	lb	t0,32(ra)
    3860:	fff00e93          	li	t4,-1
    3864:	00a00193          	li	gp,10
    3868:	01d28463          	beq	t0,t4,3870 <lb_test+0x14c>
    386c:	a51fc06f          	j	2bc <fail>
    3870:	ffffd097          	auipc	ra,0xffffd
    3874:	a3c080e7          	jalr	-1476(ra) # 2ac <update_test>
    3878:	00000097          	auipc	ra,0x0
    387c:	78808093          	addi	ra,ra,1928 # 4000 <tdat1lb>
    3880:	ffa08093          	addi	ra,ra,-6
    3884:	00708283          	lb	t0,7(ra)
    3888:	00000e93          	li	t4,0
    388c:	00b00193          	li	gp,11
    3890:	01d28463          	beq	t0,t4,3898 <lb_test+0x174>
    3894:	a29fc06f          	j	2bc <fail>
    3898:	ffffd097          	auipc	ra,0xffffd
    389c:	a14080e7          	jalr	-1516(ra) # 2ac <update_test>
    38a0:	000f8067          	jr	t6

000038a4 <lbu_test>:
    38a4:	00000513          	li	a0,0
    38a8:	00a62023          	sw	a0,0(a2)
    38ac:	00151513          	slli	a0,a0,0x1
    38b0:	00000097          	auipc	ra,0x0
    38b4:	75008093          	addi	ra,ra,1872 # 4000 <tdat1lb>
    38b8:	0000cf03          	lbu	t5,0(ra)
    38bc:	0ff00e93          	li	t4,255
    38c0:	00200193          	li	gp,2
    38c4:	01df0463          	beq	t5,t4,38cc <lbu_test+0x28>
    38c8:	9f5fc06f          	j	2bc <fail>
    38cc:	ffffd097          	auipc	ra,0xffffd
    38d0:	9e0080e7          	jalr	-1568(ra) # 2ac <update_test>
    38d4:	00000097          	auipc	ra,0x0
    38d8:	72c08093          	addi	ra,ra,1836 # 4000 <tdat1lb>
    38dc:	0010cf03          	lbu	t5,1(ra)
    38e0:	00000e93          	li	t4,0
    38e4:	00300193          	li	gp,3
    38e8:	01df0463          	beq	t5,t4,38f0 <lbu_test+0x4c>
    38ec:	9d1fc06f          	j	2bc <fail>
    38f0:	ffffd097          	auipc	ra,0xffffd
    38f4:	9bc080e7          	jalr	-1604(ra) # 2ac <update_test>
    38f8:	00000097          	auipc	ra,0x0
    38fc:	70808093          	addi	ra,ra,1800 # 4000 <tdat1lb>
    3900:	0020cf03          	lbu	t5,2(ra)
    3904:	0f000e93          	li	t4,240
    3908:	00400193          	li	gp,4
    390c:	01df0463          	beq	t5,t4,3914 <lbu_test+0x70>
    3910:	9adfc06f          	j	2bc <fail>
    3914:	ffffd097          	auipc	ra,0xffffd
    3918:	998080e7          	jalr	-1640(ra) # 2ac <update_test>
    391c:	00000097          	auipc	ra,0x0
    3920:	6e408093          	addi	ra,ra,1764 # 4000 <tdat1lb>
    3924:	0030cf03          	lbu	t5,3(ra)
    3928:	00f00e93          	li	t4,15
    392c:	00500193          	li	gp,5
    3930:	01df0463          	beq	t5,t4,3938 <lbu_test+0x94>
    3934:	989fc06f          	j	2bc <fail>
    3938:	ffffd097          	auipc	ra,0xffffd
    393c:	974080e7          	jalr	-1676(ra) # 2ac <update_test>
    3940:	00000097          	auipc	ra,0x0
    3944:	6c308093          	addi	ra,ra,1731 # 4003 <tdat4lb>
    3948:	ffd0cf03          	lbu	t5,-3(ra)
    394c:	0ff00e93          	li	t4,255
    3950:	00600193          	li	gp,6
    3954:	01df0463          	beq	t5,t4,395c <lbu_test+0xb8>
    3958:	965fc06f          	j	2bc <fail>
    395c:	ffffd097          	auipc	ra,0xffffd
    3960:	950080e7          	jalr	-1712(ra) # 2ac <update_test>
    3964:	00000097          	auipc	ra,0x0
    3968:	69f08093          	addi	ra,ra,1695 # 4003 <tdat4lb>
    396c:	ffe0cf03          	lbu	t5,-2(ra)
    3970:	00000e93          	li	t4,0
    3974:	00700193          	li	gp,7
    3978:	01df0463          	beq	t5,t4,3980 <lbu_test+0xdc>
    397c:	941fc06f          	j	2bc <fail>
    3980:	ffffd097          	auipc	ra,0xffffd
    3984:	92c080e7          	jalr	-1748(ra) # 2ac <update_test>
    3988:	00000097          	auipc	ra,0x0
    398c:	67b08093          	addi	ra,ra,1659 # 4003 <tdat4lb>
    3990:	fff0cf03          	lbu	t5,-1(ra)
    3994:	0f000e93          	li	t4,240
    3998:	00800193          	li	gp,8
    399c:	01df0463          	beq	t5,t4,39a4 <lbu_test+0x100>
    39a0:	91dfc06f          	j	2bc <fail>
    39a4:	ffffd097          	auipc	ra,0xffffd
    39a8:	908080e7          	jalr	-1784(ra) # 2ac <update_test>
    39ac:	00000097          	auipc	ra,0x0
    39b0:	65708093          	addi	ra,ra,1623 # 4003 <tdat4lb>
    39b4:	0000cf03          	lbu	t5,0(ra)
    39b8:	00f00e93          	li	t4,15
    39bc:	00900193          	li	gp,9
    39c0:	01df0463          	beq	t5,t4,39c8 <lbu_test+0x124>
    39c4:	8f9fc06f          	j	2bc <fail>
    39c8:	ffffd097          	auipc	ra,0xffffd
    39cc:	8e4080e7          	jalr	-1820(ra) # 2ac <update_test>
    39d0:	00000097          	auipc	ra,0x0
    39d4:	63008093          	addi	ra,ra,1584 # 4000 <tdat1lb>
    39d8:	fe008093          	addi	ra,ra,-32
    39dc:	0200c283          	lbu	t0,32(ra)
    39e0:	0ff00e93          	li	t4,255
    39e4:	00a00193          	li	gp,10
    39e8:	01d28463          	beq	t0,t4,39f0 <lbu_test+0x14c>
    39ec:	8d1fc06f          	j	2bc <fail>
    39f0:	ffffd097          	auipc	ra,0xffffd
    39f4:	8bc080e7          	jalr	-1860(ra) # 2ac <update_test>
    39f8:	00000097          	auipc	ra,0x0
    39fc:	60808093          	addi	ra,ra,1544 # 4000 <tdat1lb>
    3a00:	ffa08093          	addi	ra,ra,-6
    3a04:	0070c283          	lbu	t0,7(ra)
    3a08:	00000e93          	li	t4,0
    3a0c:	00b00193          	li	gp,11
    3a10:	01d28463          	beq	t0,t4,3a18 <lbu_test+0x174>
    3a14:	8a9fc06f          	j	2bc <fail>
    3a18:	ffffd097          	auipc	ra,0xffffd
    3a1c:	894080e7          	jalr	-1900(ra) # 2ac <update_test>
    3a20:	000f8067          	jr	t6

00003a24 <lhu_test>:
    3a24:	00000513          	li	a0,0
    3a28:	00a62023          	sw	a0,0(a2)
    3a2c:	00151513          	slli	a0,a0,0x1
    3a30:	00000097          	auipc	ra,0x0
    3a34:	5c808093          	addi	ra,ra,1480 # 3ff8 <tdat1lh>
    3a38:	0000df03          	lhu	t5,0(ra)
    3a3c:	0ff00e93          	li	t4,255
    3a40:	00200193          	li	gp,2
    3a44:	01df0463          	beq	t5,t4,3a4c <lhu_test+0x28>
    3a48:	875fc06f          	j	2bc <fail>
    3a4c:	ffffd097          	auipc	ra,0xffffd
    3a50:	860080e7          	jalr	-1952(ra) # 2ac <update_test>
    3a54:	00000097          	auipc	ra,0x0
    3a58:	5a408093          	addi	ra,ra,1444 # 3ff8 <tdat1lh>
    3a5c:	0020df03          	lhu	t5,2(ra)
    3a60:	00010eb7          	lui	t4,0x10
    3a64:	f00e8e93          	addi	t4,t4,-256 # ff00 <__global_pointer$+0xb740>
    3a68:	00300193          	li	gp,3
    3a6c:	01df0463          	beq	t5,t4,3a74 <lhu_test+0x50>
    3a70:	84dfc06f          	j	2bc <fail>
    3a74:	ffffd097          	auipc	ra,0xffffd
    3a78:	838080e7          	jalr	-1992(ra) # 2ac <update_test>
    3a7c:	00000097          	auipc	ra,0x0
    3a80:	57c08093          	addi	ra,ra,1404 # 3ff8 <tdat1lh>
    3a84:	0040df03          	lhu	t5,4(ra)
    3a88:	00001eb7          	lui	t4,0x1
    3a8c:	ff0e8e93          	addi	t4,t4,-16 # ff0 <srl_test+0x250>
    3a90:	00400193          	li	gp,4
    3a94:	01df0463          	beq	t5,t4,3a9c <lhu_test+0x78>
    3a98:	825fc06f          	j	2bc <fail>
    3a9c:	ffffd097          	auipc	ra,0xffffd
    3aa0:	810080e7          	jalr	-2032(ra) # 2ac <update_test>
    3aa4:	00000097          	auipc	ra,0x0
    3aa8:	55408093          	addi	ra,ra,1364 # 3ff8 <tdat1lh>
    3aac:	0060df03          	lhu	t5,6(ra)
    3ab0:	0000feb7          	lui	t4,0xf
    3ab4:	00fe8e93          	addi	t4,t4,15 # f00f <__global_pointer$+0xa84f>
    3ab8:	00500193          	li	gp,5
    3abc:	01df0463          	beq	t5,t4,3ac4 <lhu_test+0xa0>
    3ac0:	ffcfc06f          	j	2bc <fail>
    3ac4:	ffffc097          	auipc	ra,0xffffc
    3ac8:	7e8080e7          	jalr	2024(ra) # 2ac <update_test>
    3acc:	00000097          	auipc	ra,0x0
    3ad0:	53208093          	addi	ra,ra,1330 # 3ffe <tdat4lh>
    3ad4:	ffa0df03          	lhu	t5,-6(ra)
    3ad8:	0ff00e93          	li	t4,255
    3adc:	00600193          	li	gp,6
    3ae0:	01df0463          	beq	t5,t4,3ae8 <lhu_test+0xc4>
    3ae4:	fd8fc06f          	j	2bc <fail>
    3ae8:	ffffc097          	auipc	ra,0xffffc
    3aec:	7c4080e7          	jalr	1988(ra) # 2ac <update_test>
    3af0:	00000097          	auipc	ra,0x0
    3af4:	50e08093          	addi	ra,ra,1294 # 3ffe <tdat4lh>
    3af8:	ffc0df03          	lhu	t5,-4(ra)
    3afc:	00010eb7          	lui	t4,0x10
    3b00:	f00e8e93          	addi	t4,t4,-256 # ff00 <__global_pointer$+0xb740>
    3b04:	00700193          	li	gp,7
    3b08:	01df0463          	beq	t5,t4,3b10 <lhu_test+0xec>
    3b0c:	fb0fc06f          	j	2bc <fail>
    3b10:	ffffc097          	auipc	ra,0xffffc
    3b14:	79c080e7          	jalr	1948(ra) # 2ac <update_test>
    3b18:	00000097          	auipc	ra,0x0
    3b1c:	4e608093          	addi	ra,ra,1254 # 3ffe <tdat4lh>
    3b20:	ffe0df03          	lhu	t5,-2(ra)
    3b24:	00001eb7          	lui	t4,0x1
    3b28:	ff0e8e93          	addi	t4,t4,-16 # ff0 <srl_test+0x250>
    3b2c:	00800193          	li	gp,8
    3b30:	01df0463          	beq	t5,t4,3b38 <lhu_test+0x114>
    3b34:	f88fc06f          	j	2bc <fail>
    3b38:	ffffc097          	auipc	ra,0xffffc
    3b3c:	774080e7          	jalr	1908(ra) # 2ac <update_test>
    3b40:	00000097          	auipc	ra,0x0
    3b44:	4be08093          	addi	ra,ra,1214 # 3ffe <tdat4lh>
    3b48:	0000df03          	lhu	t5,0(ra)
    3b4c:	0000feb7          	lui	t4,0xf
    3b50:	00fe8e93          	addi	t4,t4,15 # f00f <__global_pointer$+0xa84f>
    3b54:	00900193          	li	gp,9
    3b58:	01df0463          	beq	t5,t4,3b60 <lhu_test+0x13c>
    3b5c:	f60fc06f          	j	2bc <fail>
    3b60:	ffffc097          	auipc	ra,0xffffc
    3b64:	74c080e7          	jalr	1868(ra) # 2ac <update_test>
    3b68:	00000097          	auipc	ra,0x0
    3b6c:	49008093          	addi	ra,ra,1168 # 3ff8 <tdat1lh>
    3b70:	fe008093          	addi	ra,ra,-32
    3b74:	0200d283          	lhu	t0,32(ra)
    3b78:	0ff00e93          	li	t4,255
    3b7c:	00a00193          	li	gp,10
    3b80:	01d28463          	beq	t0,t4,3b88 <lhu_test+0x164>
    3b84:	f38fc06f          	j	2bc <fail>
    3b88:	ffffc097          	auipc	ra,0xffffc
    3b8c:	724080e7          	jalr	1828(ra) # 2ac <update_test>
    3b90:	00000097          	auipc	ra,0x0
    3b94:	46808093          	addi	ra,ra,1128 # 3ff8 <tdat1lh>
    3b98:	ffb08093          	addi	ra,ra,-5
    3b9c:	0070d283          	lhu	t0,7(ra)
    3ba0:	00010eb7          	lui	t4,0x10
    3ba4:	f00e8e93          	addi	t4,t4,-256 # ff00 <__global_pointer$+0xb740>
    3ba8:	00b00193          	li	gp,11
    3bac:	01d28463          	beq	t0,t4,3bb4 <lhu_test+0x190>
    3bb0:	f0cfc06f          	j	2bc <fail>
    3bb4:	ffffc097          	auipc	ra,0xffffc
    3bb8:	6f8080e7          	jalr	1784(ra) # 2ac <update_test>
    3bbc:	000f8067          	jr	t6

00003bc0 <sh_test>:
    3bc0:	00000513          	li	a0,0
    3bc4:	00a62023          	sw	a0,0(a2)
    3bc8:	00151513          	slli	a0,a0,0x1
    3bcc:	00000097          	auipc	ra,0x0
    3bd0:	44208093          	addi	ra,ra,1090 # 400e <tdat1sh>
    3bd4:	0aa00113          	li	sp,170
    3bd8:	00209023          	sh	sp,0(ra)
    3bdc:	00009f03          	lh	t5,0(ra)
    3be0:	0aa00e93          	li	t4,170
    3be4:	00200193          	li	gp,2
    3be8:	01df0463          	beq	t5,t4,3bf0 <sh_test+0x30>
    3bec:	ed0fc06f          	j	2bc <fail>
    3bf0:	ffffc097          	auipc	ra,0xffffc
    3bf4:	6bc080e7          	jalr	1724(ra) # 2ac <update_test>
    3bf8:	00000097          	auipc	ra,0x0
    3bfc:	41608093          	addi	ra,ra,1046 # 400e <tdat1sh>
    3c00:	ffffb137          	lui	sp,0xffffb
    3c04:	a0010113          	addi	sp,sp,-1536 # ffffaa00 <SSEG+0xeef3aa00>
    3c08:	00209123          	sh	sp,2(ra)
    3c0c:	00209f03          	lh	t5,2(ra)
    3c10:	ffffbeb7          	lui	t4,0xffffb
    3c14:	a00e8e93          	addi	t4,t4,-1536 # ffffaa00 <SSEG+0xeef3aa00>
    3c18:	00300193          	li	gp,3
    3c1c:	01df0463          	beq	t5,t4,3c24 <sh_test+0x64>
    3c20:	e9cfc06f          	j	2bc <fail>
    3c24:	ffffc097          	auipc	ra,0xffffc
    3c28:	688080e7          	jalr	1672(ra) # 2ac <update_test>
    3c2c:	00000097          	auipc	ra,0x0
    3c30:	3e208093          	addi	ra,ra,994 # 400e <tdat1sh>
    3c34:	beef1137          	lui	sp,0xbeef1
    3c38:	aa010113          	addi	sp,sp,-1376 # beef0aa0 <SSEG+0xade30aa0>
    3c3c:	00209223          	sh	sp,4(ra)
    3c40:	00409f03          	lh	t5,4(ra)
    3c44:	00001eb7          	lui	t4,0x1
    3c48:	aa0e8e93          	addi	t4,t4,-1376 # aa0 <xor_test+0xdc>
    3c4c:	00400193          	li	gp,4
    3c50:	01df0463          	beq	t5,t4,3c58 <sh_test+0x98>
    3c54:	e68fc06f          	j	2bc <fail>
    3c58:	ffffc097          	auipc	ra,0xffffc
    3c5c:	654080e7          	jalr	1620(ra) # 2ac <update_test>
    3c60:	00000097          	auipc	ra,0x0
    3c64:	3ae08093          	addi	ra,ra,942 # 400e <tdat1sh>
    3c68:	ffffa137          	lui	sp,0xffffa
    3c6c:	00a10113          	addi	sp,sp,10 # ffffa00a <SSEG+0xeef3a00a>
    3c70:	00209323          	sh	sp,6(ra)
    3c74:	00609f03          	lh	t5,6(ra)
    3c78:	ffffaeb7          	lui	t4,0xffffa
    3c7c:	00ae8e93          	addi	t4,t4,10 # ffffa00a <SSEG+0xeef3a00a>
    3c80:	00500193          	li	gp,5
    3c84:	01df0463          	beq	t5,t4,3c8c <sh_test+0xcc>
    3c88:	e34fc06f          	j	2bc <fail>
    3c8c:	ffffc097          	auipc	ra,0xffffc
    3c90:	620080e7          	jalr	1568(ra) # 2ac <update_test>
    3c94:	00000097          	auipc	ra,0x0
    3c98:	38808093          	addi	ra,ra,904 # 401c <tdat8sh>
    3c9c:	0aa00113          	li	sp,170
    3ca0:	fe209d23          	sh	sp,-6(ra)
    3ca4:	ffa09f03          	lh	t5,-6(ra)
    3ca8:	0aa00e93          	li	t4,170
    3cac:	00600193          	li	gp,6
    3cb0:	01df0463          	beq	t5,t4,3cb8 <sh_test+0xf8>
    3cb4:	e08fc06f          	j	2bc <fail>
    3cb8:	ffffc097          	auipc	ra,0xffffc
    3cbc:	5f4080e7          	jalr	1524(ra) # 2ac <update_test>
    3cc0:	00000097          	auipc	ra,0x0
    3cc4:	35c08093          	addi	ra,ra,860 # 401c <tdat8sh>
    3cc8:	ffffb137          	lui	sp,0xffffb
    3ccc:	a0010113          	addi	sp,sp,-1536 # ffffaa00 <SSEG+0xeef3aa00>
    3cd0:	fe209e23          	sh	sp,-4(ra)
    3cd4:	ffc09f03          	lh	t5,-4(ra)
    3cd8:	ffffbeb7          	lui	t4,0xffffb
    3cdc:	a00e8e93          	addi	t4,t4,-1536 # ffffaa00 <SSEG+0xeef3aa00>
    3ce0:	00700193          	li	gp,7
    3ce4:	01df0463          	beq	t5,t4,3cec <sh_test+0x12c>
    3ce8:	dd4fc06f          	j	2bc <fail>
    3cec:	ffffc097          	auipc	ra,0xffffc
    3cf0:	5c0080e7          	jalr	1472(ra) # 2ac <update_test>
    3cf4:	00000097          	auipc	ra,0x0
    3cf8:	32808093          	addi	ra,ra,808 # 401c <tdat8sh>
    3cfc:	00001137          	lui	sp,0x1
    3d00:	aa010113          	addi	sp,sp,-1376 # aa0 <xor_test+0xdc>
    3d04:	fe209f23          	sh	sp,-2(ra)
    3d08:	ffe09f03          	lh	t5,-2(ra)
    3d0c:	00001eb7          	lui	t4,0x1
    3d10:	aa0e8e93          	addi	t4,t4,-1376 # aa0 <xor_test+0xdc>
    3d14:	00800193          	li	gp,8
    3d18:	01df0463          	beq	t5,t4,3d20 <sh_test+0x160>
    3d1c:	da0fc06f          	j	2bc <fail>
    3d20:	ffffc097          	auipc	ra,0xffffc
    3d24:	58c080e7          	jalr	1420(ra) # 2ac <update_test>
    3d28:	00000097          	auipc	ra,0x0
    3d2c:	2f408093          	addi	ra,ra,756 # 401c <tdat8sh>
    3d30:	ffffa137          	lui	sp,0xffffa
    3d34:	00a10113          	addi	sp,sp,10 # ffffa00a <SSEG+0xeef3a00a>
    3d38:	00209023          	sh	sp,0(ra)
    3d3c:	00009f03          	lh	t5,0(ra)
    3d40:	ffffaeb7          	lui	t4,0xffffa
    3d44:	00ae8e93          	addi	t4,t4,10 # ffffa00a <SSEG+0xeef3a00a>
    3d48:	00900193          	li	gp,9
    3d4c:	01df0463          	beq	t5,t4,3d54 <sh_test+0x194>
    3d50:	d6cfc06f          	j	2bc <fail>
    3d54:	ffffc097          	auipc	ra,0xffffc
    3d58:	558080e7          	jalr	1368(ra) # 2ac <update_test>
    3d5c:	00000097          	auipc	ra,0x0
    3d60:	2c208093          	addi	ra,ra,706 # 401e <tdat9sh>
    3d64:	12345137          	lui	sp,0x12345
    3d68:	67810113          	addi	sp,sp,1656 # 12345678 <SSEG+0x1285678>
    3d6c:	fe008213          	addi	tp,ra,-32
    3d70:	02221023          	sh	sp,32(tp) # 20 <int_setup+0x20>
    3d74:	00009283          	lh	t0,0(ra)
    3d78:	00005eb7          	lui	t4,0x5
    3d7c:	678e8e93          	addi	t4,t4,1656 # 5678 <__global_pointer$+0xeb8>
    3d80:	00a00193          	li	gp,10
    3d84:	01d28463          	beq	t0,t4,3d8c <sh_test+0x1cc>
    3d88:	d34fc06f          	j	2bc <fail>
    3d8c:	ffffc097          	auipc	ra,0xffffc
    3d90:	520080e7          	jalr	1312(ra) # 2ac <update_test>
    3d94:	00000097          	auipc	ra,0x0
    3d98:	28a08093          	addi	ra,ra,650 # 401e <tdat9sh>
    3d9c:	00003137          	lui	sp,0x3
    3da0:	09810113          	addi	sp,sp,152 # 3098 <bltu_test+0x6c>
    3da4:	ffb08093          	addi	ra,ra,-5
    3da8:	002093a3          	sh	sp,7(ra)
    3dac:	00000217          	auipc	tp,0x0
    3db0:	27420213          	addi	tp,tp,628 # 4020 <tdat10sh>
    3db4:	00021283          	lh	t0,0(tp) # 0 <int_setup>
    3db8:	00003eb7          	lui	t4,0x3
    3dbc:	098e8e93          	addi	t4,t4,152 # 3098 <bltu_test+0x6c>
    3dc0:	00b00193          	li	gp,11
    3dc4:	01d28463          	beq	t0,t4,3dcc <sh_test+0x20c>
    3dc8:	cf4fc06f          	j	2bc <fail>
    3dcc:	ffffc097          	auipc	ra,0xffffc
    3dd0:	4e0080e7          	jalr	1248(ra) # 2ac <update_test>
    3dd4:	000f8067          	jr	t6

00003dd8 <sb_test>:
    3dd8:	00000513          	li	a0,0
    3ddc:	00a62023          	sw	a0,0(a2)
    3de0:	00151513          	slli	a0,a0,0x1
    3de4:	00000097          	auipc	ra,0x0
    3de8:	22008093          	addi	ra,ra,544 # 4004 <tdat1sb>
    3dec:	faa00113          	li	sp,-86
    3df0:	00208023          	sb	sp,0(ra)
    3df4:	00008f03          	lb	t5,0(ra)
    3df8:	faa00e93          	li	t4,-86
    3dfc:	00200193          	li	gp,2
    3e00:	01df0463          	beq	t5,t4,3e08 <sb_test+0x30>
    3e04:	cb8fc06f          	j	2bc <fail>
    3e08:	ffffc097          	auipc	ra,0xffffc
    3e0c:	4a4080e7          	jalr	1188(ra) # 2ac <update_test>
    3e10:	00000097          	auipc	ra,0x0
    3e14:	1f408093          	addi	ra,ra,500 # 4004 <tdat1sb>
    3e18:	00000113          	li	sp,0
    3e1c:	002080a3          	sb	sp,1(ra)
    3e20:	00108f03          	lb	t5,1(ra)
    3e24:	00000e93          	li	t4,0
    3e28:	00300193          	li	gp,3
    3e2c:	01df0463          	beq	t5,t4,3e34 <sb_test+0x5c>
    3e30:	c8cfc06f          	j	2bc <fail>
    3e34:	ffffc097          	auipc	ra,0xffffc
    3e38:	478080e7          	jalr	1144(ra) # 2ac <update_test>
    3e3c:	00000097          	auipc	ra,0x0
    3e40:	1c808093          	addi	ra,ra,456 # 4004 <tdat1sb>
    3e44:	fffff137          	lui	sp,0xfffff
    3e48:	fa010113          	addi	sp,sp,-96 # ffffefa0 <SSEG+0xeef3efa0>
    3e4c:	00208123          	sb	sp,2(ra)
    3e50:	00208f03          	lb	t5,2(ra)
    3e54:	fa000e93          	li	t4,-96
    3e58:	00400193          	li	gp,4
    3e5c:	01df0463          	beq	t5,t4,3e64 <sb_test+0x8c>
    3e60:	c5cfc06f          	j	2bc <fail>
    3e64:	ffffc097          	auipc	ra,0xffffc
    3e68:	448080e7          	jalr	1096(ra) # 2ac <update_test>
    3e6c:	00000097          	auipc	ra,0x0
    3e70:	19808093          	addi	ra,ra,408 # 4004 <tdat1sb>
    3e74:	00a00113          	li	sp,10
    3e78:	002081a3          	sb	sp,3(ra)
    3e7c:	00308f03          	lb	t5,3(ra)
    3e80:	00a00e93          	li	t4,10
    3e84:	00500193          	li	gp,5
    3e88:	01df0463          	beq	t5,t4,3e90 <sb_test+0xb8>
    3e8c:	c30fc06f          	j	2bc <fail>
    3e90:	ffffc097          	auipc	ra,0xffffc
    3e94:	41c080e7          	jalr	1052(ra) # 2ac <update_test>
    3e98:	00000097          	auipc	ra,0x0
    3e9c:	17308093          	addi	ra,ra,371 # 400b <tdat8sb>
    3ea0:	faa00113          	li	sp,-86
    3ea4:	fe208ea3          	sb	sp,-3(ra)
    3ea8:	ffd08f03          	lb	t5,-3(ra)
    3eac:	faa00e93          	li	t4,-86
    3eb0:	00600193          	li	gp,6
    3eb4:	01df0463          	beq	t5,t4,3ebc <sb_test+0xe4>
    3eb8:	c04fc06f          	j	2bc <fail>
    3ebc:	ffffc097          	auipc	ra,0xffffc
    3ec0:	3f0080e7          	jalr	1008(ra) # 2ac <update_test>
    3ec4:	00000097          	auipc	ra,0x0
    3ec8:	14708093          	addi	ra,ra,327 # 400b <tdat8sb>
    3ecc:	00000113          	li	sp,0
    3ed0:	fe208f23          	sb	sp,-2(ra)
    3ed4:	ffe08f03          	lb	t5,-2(ra)
    3ed8:	00000e93          	li	t4,0
    3edc:	00700193          	li	gp,7
    3ee0:	01df0463          	beq	t5,t4,3ee8 <sb_test+0x110>
    3ee4:	bd8fc06f          	j	2bc <fail>
    3ee8:	ffffc097          	auipc	ra,0xffffc
    3eec:	3c4080e7          	jalr	964(ra) # 2ac <update_test>
    3ef0:	00000097          	auipc	ra,0x0
    3ef4:	11b08093          	addi	ra,ra,283 # 400b <tdat8sb>
    3ef8:	fa000113          	li	sp,-96
    3efc:	fe208fa3          	sb	sp,-1(ra)
    3f00:	fff08f03          	lb	t5,-1(ra)
    3f04:	fa000e93          	li	t4,-96
    3f08:	00800193          	li	gp,8
    3f0c:	01df0463          	beq	t5,t4,3f14 <sb_test+0x13c>
    3f10:	bacfc06f          	j	2bc <fail>
    3f14:	ffffc097          	auipc	ra,0xffffc
    3f18:	398080e7          	jalr	920(ra) # 2ac <update_test>
    3f1c:	00000097          	auipc	ra,0x0
    3f20:	0ef08093          	addi	ra,ra,239 # 400b <tdat8sb>
    3f24:	00a00113          	li	sp,10
    3f28:	00208023          	sb	sp,0(ra)
    3f2c:	00008f03          	lb	t5,0(ra)
    3f30:	00a00e93          	li	t4,10
    3f34:	00900193          	li	gp,9
    3f38:	01df0463          	beq	t5,t4,3f40 <sb_test+0x168>
    3f3c:	b80fc06f          	j	2bc <fail>
    3f40:	ffffc097          	auipc	ra,0xffffc
    3f44:	36c080e7          	jalr	876(ra) # 2ac <update_test>
    3f48:	00000097          	auipc	ra,0x0
    3f4c:	0c408093          	addi	ra,ra,196 # 400c <tdat9sb>
    3f50:	12345137          	lui	sp,0x12345
    3f54:	67810113          	addi	sp,sp,1656 # 12345678 <SSEG+0x1285678>
    3f58:	fe008213          	addi	tp,ra,-32
    3f5c:	02220023          	sb	sp,32(tp) # 20 <int_setup+0x20>
    3f60:	00008283          	lb	t0,0(ra)
    3f64:	07800e93          	li	t4,120
    3f68:	00a00193          	li	gp,10
    3f6c:	01d28463          	beq	t0,t4,3f74 <sb_test+0x19c>
    3f70:	b4cfc06f          	j	2bc <fail>
    3f74:	ffffc097          	auipc	ra,0xffffc
    3f78:	338080e7          	jalr	824(ra) # 2ac <update_test>
    3f7c:	00000097          	auipc	ra,0x0
    3f80:	09008093          	addi	ra,ra,144 # 400c <tdat9sb>
    3f84:	00003137          	lui	sp,0x3
    3f88:	09810113          	addi	sp,sp,152 # 3098 <bltu_test+0x6c>
    3f8c:	ffa08093          	addi	ra,ra,-6
    3f90:	002083a3          	sb	sp,7(ra)
    3f94:	00000217          	auipc	tp,0x0
    3f98:	07920213          	addi	tp,tp,121 # 400d <tdat10sb>
    3f9c:	00020283          	lb	t0,0(tp) # 0 <int_setup>
    3fa0:	f9800e93          	li	t4,-104
    3fa4:	00b00193          	li	gp,11
    3fa8:	01d28463          	beq	t0,t4,3fb0 <sb_test+0x1d8>
    3fac:	b10fc06f          	j	2bc <fail>
    3fb0:	ffffc097          	auipc	ra,0xffffc
    3fb4:	2fc080e7          	jalr	764(ra) # 2ac <update_test>
    3fb8:	000f8067          	jr	t6
    3fbc:	0000                	.2byte	0x0
	...
